
kernel.elf:     file format elf32-littlearm


Disassembly of section .text:

00008000 <_start>:
    8000:	e59ff018 	ldr	pc, [pc, #24]	; 8020 <reset_handler>
    8004:	e59ff018 	ldr	pc, [pc, #24]	; 8024 <undefined_handler>
    8008:	e59ff018 	ldr	pc, [pc, #24]	; 8028 <swi_handler>
    800c:	e59ff018 	ldr	pc, [pc, #24]	; 802c <prefetch_handler>
    8010:	e59ff018 	ldr	pc, [pc, #24]	; 8030 <data_handler>
    8014:	e59ff018 	ldr	pc, [pc, #24]	; 8034 <unused_handler>
    8018:	e59ff018 	ldr	pc, [pc, #24]	; 8038 <irq_handler>
    801c:	e59ff018 	ldr	pc, [pc, #24]	; 803c <fiq_handler>

00008020 <reset_handler>:
    8020:	00008040 	andeq	r8, r0, r0, asr #32

00008024 <undefined_handler>:
    8024:	00008084 	andeq	r8, r0, r4, lsl #1

00008028 <swi_handler>:
    8028:	00008088 	andeq	r8, r0, r8, lsl #1

0000802c <prefetch_handler>:
    802c:	0000808c 	andeq	r8, r0, ip, lsl #1

00008030 <data_handler>:
    8030:	00008090 	muleq	r0, r0, r0

00008034 <unused_handler>:
    8034:	00008094 	muleq	r0, r4, r0

00008038 <irq_handler>:
    8038:	000080cc 	andeq	r8, r0, ip, asr #1

0000803c <fiq_handler>:
    803c:	00008098 	muleq	r0, r8, r0

00008040 <reset>:
    8040:	e3a00902 	mov	r0, #32768	; 0x8000
    8044:	e3a01000 	mov	r1, #0
    8048:	e8b003fc 	ldm	r0!, {r2, r3, r4, r5, r6, r7, r8, r9}
    804c:	e8a103fc 	stmia	r1!, {r2, r3, r4, r5, r6, r7, r8, r9}
    8050:	e8b003fc 	ldm	r0!, {r2, r3, r4, r5, r6, r7, r8, r9}
    8054:	e8a103fc 	stmia	r1!, {r2, r3, r4, r5, r6, r7, r8, r9}
    8058:	e3a000d1 	mov	r0, #209	; 0xd1
    805c:	e121f000 	msr	CPSR_c, r0
    8060:	e3a0d90e 	mov	sp, #229376	; 0x38000
    8064:	e3a000d2 	mov	r0, #210	; 0xd2
    8068:	e121f000 	msr	CPSR_c, r0
    806c:	e3a0d701 	mov	sp, #262144	; 0x40000
    8070:	e3a000d3 	mov	r0, #211	; 0xd3
    8074:	e121f000 	msr	CPSR_c, r0
    8078:	e3a0d912 	mov	sp, #294912	; 0x48000
    807c:	eb00003f 	bl	8180 <kmain>

00008080 <hang>:
    8080:	eafffffe 	b	8080 <hang>

00008084 <undefined>:
    8084:	eafffffe 	b	8084 <undefined>

00008088 <swi>:
    8088:	eafffffe 	b	8088 <swi>

0000808c <prefetch>:
    808c:	eafffffe 	b	808c <prefetch>

00008090 <data>:
    8090:	eafffffe 	b	8090 <data>

00008094 <unused>:
    8094:	eafffffe 	b	8094 <unused>

00008098 <fiq>:
    8098:	eafffffe 	b	8098 <fiq>

0000809c <PUT32>:
    809c:	e5801000 	str	r1, [r0]
    80a0:	e12fff1e 	bx	lr

000080a4 <PUT16>:
    80a4:	e1c010b0 	strh	r1, [r0]
    80a8:	e12fff1e 	bx	lr

000080ac <PUT8>:
    80ac:	e5c01000 	strb	r1, [r0]
    80b0:	e12fff1e 	bx	lr

000080b4 <GET32>:
    80b4:	e5900000 	ldr	r0, [r0]
    80b8:	e12fff1e 	bx	lr

000080bc <GETPC>:
    80bc:	e1a0000e 	mov	r0, lr
    80c0:	e12fff1e 	bx	lr

000080c4 <BRANCHTO>:
    80c4:	e12fff10 	bx	r0

000080c8 <dummy>:
    80c8:	e12fff1e 	bx	lr

000080cc <irq>:
    80cc:	eafffffe 	b	80cc <irq>

000080d0 <divide>:
    80d0:	e24dd010 	sub	sp, sp, #16
    80d4:	e58d0004 	str	r0, [sp, #4]
    80d8:	e58d1000 	str	r1, [sp]
    80dc:	e3a03000 	mov	r3, #0
    80e0:	e58d300c 	str	r3, [sp, #12]
    80e4:	e59d3004 	ldr	r3, [sp, #4]
    80e8:	e58d3008 	str	r3, [sp, #8]
    80ec:	ea000006 	b	810c <divide+0x3c>
    80f0:	e59d300c 	ldr	r3, [sp, #12]
    80f4:	e2833001 	add	r3, r3, #1
    80f8:	e58d300c 	str	r3, [sp, #12]
    80fc:	e59d2008 	ldr	r2, [sp, #8]
    8100:	e59d3000 	ldr	r3, [sp]
    8104:	e0633002 	rsb	r3, r3, r2
    8108:	e58d3008 	str	r3, [sp, #8]
    810c:	e59d2008 	ldr	r2, [sp, #8]
    8110:	e59d3000 	ldr	r3, [sp]
    8114:	e1520003 	cmp	r2, r3
    8118:	aafffff4 	bge	80f0 <divide+0x20>
    811c:	e59d300c 	ldr	r3, [sp, #12]
    8120:	e1a00003 	mov	r0, r3
    8124:	e28dd010 	add	sp, sp, #16
    8128:	e12fff1e 	bx	lr

0000812c <compute_volume>:
    812c:	e52de004 	push	{lr}		; (str lr, [sp, #-4]!)
    8130:	e24dd014 	sub	sp, sp, #20
    8134:	e58d0004 	str	r0, [sp, #4]
    8138:	e59d3004 	ldr	r3, [sp, #4]
    813c:	e59d2004 	ldr	r2, [sp, #4]
    8140:	e0030392 	mul	r3, r2, r3
    8144:	e59d2004 	ldr	r2, [sp, #4]
    8148:	e0030392 	mul	r3, r2, r3
    814c:	e58d300c 	str	r3, [sp, #12]
    8150:	e59d300c 	ldr	r3, [sp, #12]
    8154:	e59f201c 	ldr	r2, [pc, #28]	; 8178 <compute_volume+0x4c>
    8158:	e0030392 	mul	r3, r2, r3
    815c:	e1a00003 	mov	r0, r3
    8160:	e59f1014 	ldr	r1, [pc, #20]	; 817c <compute_volume+0x50>
    8164:	ebffffd9 	bl	80d0 <divide>
    8168:	e1a03000 	mov	r3, r0
    816c:	e1a00003 	mov	r0, r3
    8170:	e28dd014 	add	sp, sp, #20
    8174:	e8bd8000 	pop	{pc}
    8178:	0000058c 	andeq	r0, r0, ip, lsl #11
    817c:	00000153 	andeq	r0, r0, r3, asr r1

00008180 <kmain>:
    8180:	e52de004 	push	{lr}		; (str lr, [sp, #-4]!)
    8184:	e24dd00c 	sub	sp, sp, #12
    8188:	e3a03005 	mov	r3, #5
    818c:	e58d3004 	str	r3, [sp, #4]
    8190:	e59d0004 	ldr	r0, [sp, #4]
    8194:	ebffffe4 	bl	812c <compute_volume>
    8198:	e58d0000 	str	r0, [sp]
    819c:	e59d3000 	ldr	r3, [sp]
    81a0:	e1a00003 	mov	r0, r3
    81a4:	e28dd00c 	add	sp, sp, #12
    81a8:	e8bd8000 	pop	{pc}

000081ac <phyAlloc_alloc>:
    81ac:	e92d0030 	push	{r4, r5}
    81b0:	e24dd008 	sub	sp, sp, #8
    81b4:	e58d0004 	str	r0, [sp, #4]
    81b8:	e59f3094 	ldr	r3, [pc, #148]	; 8254 <phyAlloc_alloc+0xa8>
    81bc:	e5934000 	ldr	r4, [r3]
    81c0:	e59f508c 	ldr	r5, [pc, #140]	; 8254 <phyAlloc_alloc+0xa8>
    81c4:	ea000001 	b	81d0 <phyAlloc_alloc+0x24>
    81c8:	e1a05004 	mov	r5, r4
    81cc:	e5944000 	ldr	r4, [r4]
    81d0:	e3540000 	cmp	r4, #0
    81d4:	0a000003 	beq	81e8 <phyAlloc_alloc+0x3c>
    81d8:	e5942004 	ldr	r2, [r4, #4]
    81dc:	e59d3004 	ldr	r3, [sp, #4]
    81e0:	e1520003 	cmp	r2, r3
    81e4:	3afffff7 	bcc	81c8 <phyAlloc_alloc+0x1c>
    81e8:	e3540000 	cmp	r4, #0
    81ec:	1a000011 	bne	8238 <phyAlloc_alloc+0x8c>
    81f0:	e59f3060 	ldr	r3, [pc, #96]	; 8258 <phyAlloc_alloc+0xac>
    81f4:	e5934000 	ldr	r4, [r3]
    81f8:	e59f3058 	ldr	r3, [pc, #88]	; 8258 <phyAlloc_alloc+0xac>
    81fc:	e5932000 	ldr	r2, [r3]
    8200:	e59d3004 	ldr	r3, [sp, #4]
    8204:	e2833003 	add	r3, r3, #3
    8208:	e3c33003 	bic	r3, r3, #3
    820c:	e0822003 	add	r2, r2, r3
    8210:	e59f3040 	ldr	r3, [pc, #64]	; 8258 <phyAlloc_alloc+0xac>
    8214:	e5832000 	str	r2, [r3]
    8218:	e59f3038 	ldr	r3, [pc, #56]	; 8258 <phyAlloc_alloc+0xac>
    821c:	e5932000 	ldr	r2, [r3]
    8220:	e59f3034 	ldr	r3, [pc, #52]	; 825c <phyAlloc_alloc+0xb0>
    8224:	e5933000 	ldr	r3, [r3]
    8228:	e1520003 	cmp	r2, r3
    822c:	9a000003 	bls	8240 <phyAlloc_alloc+0x94>
    8230:	e3a03000 	mov	r3, #0
    8234:	ea000002 	b	8244 <phyAlloc_alloc+0x98>
    8238:	e5943000 	ldr	r3, [r4]
    823c:	e5853000 	str	r3, [r5]
    8240:	e1a03004 	mov	r3, r4
    8244:	e1a00003 	mov	r0, r3
    8248:	e28dd008 	add	sp, sp, #8
    824c:	e8bd0030 	pop	{r4, r5}
    8250:	e12fff1e 	bx	lr
    8254:	00008420 	andeq	r8, r0, r0, lsr #8
    8258:	00008424 	andeq	r8, r0, r4, lsr #8
    825c:	00008428 	andeq	r8, r0, r8, lsr #8

00008260 <phyAlloc_free>:
    8260:	e52d4004 	push	{r4}		; (str r4, [sp, #-4]!)
    8264:	e24dd00c 	sub	sp, sp, #12
    8268:	e58d0004 	str	r0, [sp, #4]
    826c:	e58d1000 	str	r1, [sp]
    8270:	e59d4004 	ldr	r4, [sp, #4]
    8274:	e59d3000 	ldr	r3, [sp]
    8278:	e2833003 	add	r3, r3, #3
    827c:	e3c33003 	bic	r3, r3, #3
    8280:	e5843004 	str	r3, [r4, #4]
    8284:	e59f3018 	ldr	r3, [pc, #24]	; 82a4 <phyAlloc_free+0x44>
    8288:	e5933000 	ldr	r3, [r3]
    828c:	e5843000 	str	r3, [r4]
    8290:	e59f300c 	ldr	r3, [pc, #12]	; 82a4 <phyAlloc_free+0x44>
    8294:	e5834000 	str	r4, [r3]
    8298:	e28dd00c 	add	sp, sp, #12
    829c:	e8bd0010 	pop	{r4}
    82a0:	e12fff1e 	bx	lr
    82a4:	00008420 	andeq	r8, r0, r0, lsr #8

000082a8 <phyAlloc_init>:
    82a8:	e24dd008 	sub	sp, sp, #8
    82ac:	e58d0004 	str	r0, [sp, #4]
    82b0:	e58d1000 	str	r1, [sp]
    82b4:	e59f3020 	ldr	r3, [pc, #32]	; 82dc <phyAlloc_init+0x34>
    82b8:	e59d2004 	ldr	r2, [sp, #4]
    82bc:	e5832000 	str	r2, [r3]
    82c0:	e59d2004 	ldr	r2, [sp, #4]
    82c4:	e59d3000 	ldr	r3, [sp]
    82c8:	e0822003 	add	r2, r2, r3
    82cc:	e59f300c 	ldr	r3, [pc, #12]	; 82e0 <phyAlloc_init+0x38>
    82d0:	e5832000 	str	r2, [r3]
    82d4:	e28dd008 	add	sp, sp, #8
    82d8:	e12fff1e 	bx	lr
    82dc:	00008424 	andeq	r8, r0, r4, lsr #8
    82e0:	00008428 	andeq	r8, r0, r8, lsr #8

000082e4 <set_tick_and_enable_timer>:
    82e4:	e52de004 	push	{lr}		; (str lr, [sp, #-4]!)
    82e8:	e24dd00c 	sub	sp, sp, #12
    82ec:	e59f0030 	ldr	r0, [pc, #48]	; 8324 <set_tick_and_enable_timer+0x40>
    82f0:	ebffff6f 	bl	80b4 <GET32>
    82f4:	e58d0004 	str	r0, [sp, #4]
    82f8:	e59d3004 	ldr	r3, [sp, #4]
    82fc:	e2833702 	add	r3, r3, #524288	; 0x80000
    8300:	e58d3004 	str	r3, [sp, #4]
    8304:	e59f001c 	ldr	r0, [pc, #28]	; 8328 <set_tick_and_enable_timer+0x44>
    8308:	e59d1004 	ldr	r1, [sp, #4]
    830c:	ebffff62 	bl	809c <PUT32>
    8310:	e59f0014 	ldr	r0, [pc, #20]	; 832c <set_tick_and_enable_timer+0x48>
    8314:	e3a01002 	mov	r1, #2
    8318:	ebffff5f 	bl	809c <PUT32>
    831c:	e28dd00c 	add	sp, sp, #12
    8320:	e8bd8000 	pop	{pc}
    8324:	20003004 	andcs	r3, r0, r4
    8328:	20003010 	andcs	r3, r0, r0, lsl r0
    832c:	20003000 	andcs	r3, r0, r0

00008330 <led_off>:
    8330:	e92d4008 	push	{r3, lr}
    8334:	e59f0008 	ldr	r0, [pc, #8]	; 8344 <led_off+0x14>
    8338:	e3a01801 	mov	r1, #65536	; 0x10000
    833c:	ebffff56 	bl	809c <PUT32>
    8340:	e8bd8008 	pop	{r3, pc}
    8344:	2020001c 	eorcs	r0, r0, ip, lsl r0

00008348 <led_on>:
    8348:	e92d4008 	push	{r3, lr}
    834c:	e59f0008 	ldr	r0, [pc, #8]	; 835c <led_on+0x14>
    8350:	e3a01801 	mov	r1, #65536	; 0x10000
    8354:	ebffff50 	bl	809c <PUT32>
    8358:	e8bd8008 	pop	{r3, pc}
    835c:	20200028 	eorcs	r0, r0, r8, lsr #32

00008360 <init_hw>:
    8360:	e52de004 	push	{lr}		; (str lr, [sp, #-4]!)
    8364:	e24dd00c 	sub	sp, sp, #12
    8368:	e59f0098 	ldr	r0, [pc, #152]	; 8408 <init_hw+0xa8>
    836c:	ebffff50 	bl	80b4 <GET32>
    8370:	e58d0004 	str	r0, [sp, #4]
    8374:	e59d3004 	ldr	r3, [sp, #4]
    8378:	e3c33707 	bic	r3, r3, #1835008	; 0x1c0000
    837c:	e58d3004 	str	r3, [sp, #4]
    8380:	e59d3004 	ldr	r3, [sp, #4]
    8384:	e3833701 	orr	r3, r3, #262144	; 0x40000
    8388:	e58d3004 	str	r3, [sp, #4]
    838c:	e59f0074 	ldr	r0, [pc, #116]	; 8408 <init_hw+0xa8>
    8390:	e59d1004 	ldr	r1, [sp, #4]
    8394:	ebffff40 	bl	809c <PUT32>
    8398:	e59f006c 	ldr	r0, [pc, #108]	; 840c <init_hw+0xac>
    839c:	e3a01801 	mov	r1, #65536	; 0x10000
    83a0:	ebffff3d 	bl	809c <PUT32>
    83a4:	e59f0064 	ldr	r0, [pc, #100]	; 8410 <init_hw+0xb0>
    83a8:	ebffff41 	bl	80b4 <GET32>
    83ac:	e58d0000 	str	r0, [sp]
    83b0:	e59d3000 	ldr	r3, [sp]
    83b4:	e2833702 	add	r3, r3, #524288	; 0x80000
    83b8:	e58d3000 	str	r3, [sp]
    83bc:	e59f0050 	ldr	r0, [pc, #80]	; 8414 <init_hw+0xb4>
    83c0:	e59d1000 	ldr	r1, [sp]
    83c4:	ebffff34 	bl	809c <PUT32>
    83c8:	e59f0048 	ldr	r0, [pc, #72]	; 8418 <init_hw+0xb8>
    83cc:	e3a01002 	mov	r1, #2
    83d0:	ebffff31 	bl	809c <PUT32>
    83d4:	e59f0040 	ldr	r0, [pc, #64]	; 841c <init_hw+0xbc>
    83d8:	e3a01002 	mov	r1, #2
    83dc:	ebffff2e 	bl	809c <PUT32>
    83e0:	e92d0001 	push	{r0}
    83e4:	e10f0000 	mrs	r0, CPSR
    83e8:	e3800080 	orr	r0, r0, #128	; 0x80
    83ec:	e121f000 	msr	CPSR_c, r0
    83f0:	e8bd0001 	pop	{r0}
    83f4:	e3a00805 	mov	r0, #327680	; 0x50000
    83f8:	e3a01a32 	mov	r1, #204800	; 0x32000
    83fc:	ebffffa9 	bl	82a8 <phyAlloc_init>
    8400:	e28dd00c 	add	sp, sp, #12
    8404:	e8bd8000 	pop	{pc}
    8408:	20200004 	eorcs	r0, r0, r4
    840c:	2020001c 	eorcs	r0, r0, ip, lsl r0
    8410:	20003004 	andcs	r3, r0, r4
    8414:	20003010 	andcs	r3, r0, r0, lsl r0
    8418:	20003000 	andcs	r3, r0, r0
    841c:	2000b210 	andcs	fp, r0, r0, lsl r2

Disassembly of section .bss:

00008420 <freelist>:
    8420:	00000000 	andeq	r0, r0, r0

00008424 <top>:
    8424:	00000000 	andeq	r0, r0, r0

00008428 <heap_limit>:
    8428:	00000000 	andeq	r0, r0, r0

Disassembly of section .ARM.attributes:

00000000 <.ARM.attributes>:
   0:	00003141 	andeq	r3, r0, r1, asr #2
   4:	61656100 	cmnvs	r5, r0, lsl #2
   8:	01006962 	tsteq	r0, r2, ror #18
   c:	00000027 	andeq	r0, r0, r7, lsr #32
  10:	005a3605 	subseq	r3, sl, r5, lsl #12
  14:	01080706 	tsteq	r8, r6, lsl #14
  18:	020a0109 	andeq	r0, sl, #1073741826	; 0x40000002
  1c:	01140412 	tsteq	r4, r2, lsl r4
  20:	03170115 	tsteq	r7, #1073741829	; 0x40000005
  24:	011a0118 	tsteq	sl, r8, lsl r1
  28:	011c031b 	tsteq	ip, fp, lsl r3
  2c:	012c0122 	teqeq	ip, r2, lsr #2
  30:	Address 0x0000000000000030 is out of bounds.


Disassembly of section .comment:

00000000 <.comment>:
   0:	3a434347 	bcc	10d0d24 <__bss_end+0x10c88f8>
   4:	4e472820 	cdpmi	8, 4, cr2, cr7, cr0, {1}
   8:	34202955 	strtcc	r2, [r0], #-2389	; 0x955
   c:	312e372e 	teqcc	lr, lr, lsr #14
	...

Disassembly of section .debug_line:

00000000 <.debug_line>:
   0:	00000061 	andeq	r0, r0, r1, rrx
   4:	00200002 	eoreq	r0, r0, r2
   8:	01020000 	mrseq	r0, (UNDEF: 2)
   c:	000d0efb 	strdeq	r0, [sp], -fp
  10:	01010101 	tsteq	r1, r1, lsl #2
  14:	01000000 	mrseq	r0, (UNDEF: 0)
  18:	00010000 	andeq	r0, r1, r0
  1c:	74636576 	strbtvc	r6, [r3], #-1398	; 0x576
  20:	2e73726f 	cdpcs	2, 7, cr7, cr3, cr15, {3}
  24:	00000073 	andeq	r0, r0, r3, ror r0
  28:	05000000 	streq	r0, [r0, #-0]
  2c:	00800002 	addeq	r0, r0, r2
  30:	2f2f1900 	svccs	0x002f1900
  34:	2f2f2f2f 	svccs	0x002f2f2f
  38:	080b032f 	stmdaeq	fp, {r0, r1, r2, r3, r5, r8, r9}
  3c:	2f2f2f20 	svccs	0x002f2f20
  40:	2f322f2f 	svccs	0x00322f2f
  44:	2f2f322f 	svccs	0x002f322f
  48:	302f2f31 	eorcc	r2, pc, r1, lsr pc	; <UNPREDICTABLE>
  4c:	2f2f2f30 	svccs	0x002f2f30
  50:	322f2f2f 	eorcc	r2, pc, #188	; 0xbc
  54:	322f322f 	eorcc	r3, pc, #-268435454	; 0xf0000002
  58:	322f322f 	eorcc	r3, pc, #-268435454	; 0xf0000002
  5c:	3032322f 	eorscc	r3, r2, pc, lsr #4
  60:	01000202 	tsteq	r0, r2, lsl #4
  64:	00004701 	andeq	r4, r0, r1, lsl #14
  68:	1f000200 	svcne	0x00000200
  6c:	02000000 	andeq	r0, r0, #0
  70:	0d0efb01 	vstreq	d15, [lr, #-4]
  74:	01010100 	mrseq	r0, (UNDEF: 17)
  78:	00000001 	andeq	r0, r0, r1
  7c:	01000001 	tsteq	r0, r1
  80:	72656b00 	rsbvc	r6, r5, #0
  84:	2e6c656e 	cdpcs	5, 6, cr6, cr12, cr14, {3}
  88:	00000063 	andeq	r0, r0, r3, rrx
  8c:	05000000 	streq	r0, [r0, #-0]
  90:	0080d002 	addeq	sp, r0, r2
  94:	4b671300 	blmi	19c4c9c <__bss_end+0x19bc870>
  98:	00672f4b 	rsbeq	r2, r7, fp, asr #30
  9c:	80010402 	andhi	r0, r1, r2, lsl #8
  a0:	67682f86 	strbvs	r2, [r8, -r6, lsl #31]!
  a4:	4ba0d7bb 	blmi	fe835f98 <__bss_end+0xfe82db6c>
  a8:	022f674c 	eoreq	r6, pc, #19922944	; 0x1300000
  ac:	01010006 	tsteq	r1, r6
  b0:	00000059 	andeq	r0, r0, r9, asr r0
  b4:	00210002 	eoreq	r0, r1, r2
  b8:	01020000 	mrseq	r0, (UNDEF: 2)
  bc:	000d0efb 	strdeq	r0, [sp], -fp
  c0:	01010101 	tsteq	r1, r1, lsl #2
  c4:	01000000 	mrseq	r0, (UNDEF: 0)
  c8:	00010000 	andeq	r0, r1, r0
  cc:	41796870 	cmnmi	r9, r0, ror r8
  d0:	636f6c6c 	cmnvs	pc, #27648	; 0x6c00
  d4:	0000632e 	andeq	r6, r0, lr, lsr #6
  d8:	00000000 	andeq	r0, r0, r0
  dc:	81ac0205 			; <UNDEFINED> instruction: 0x81ac0205
  e0:	0c030000 	stceq	0, cr0, [r3], {-0}
  e4:	2f4c6701 	svccs	0x004c6701
  e8:	02002f2f 	andeq	r2, r0, #188	; 0xbc
  ec:	002c0104 	eoreq	r0, ip, r4, lsl #2
  f0:	06020402 	streq	r0, [r2], -r2, lsl #8
  f4:	4b86064a 	blmi	fe181a24 <__bss_end+0xfe1795f8>
  f8:	4cbbf44b 	cfldrsmi	mvf15, [fp], #300	; 0x12c
  fc:	83da2f4c 	bicshi	r2, sl, #304	; 0x130
 100:	4b678330 	blmi	19e0dc8 <__bss_end+0x19d899c>
 104:	9f676786 	svcls	0x00676786
 108:	01000802 	tsteq	r0, r2, lsl #16
 10c:	00004b01 	andeq	r4, r0, r1, lsl #22
 110:	1b000200 	blne	918 <_start-0x76e8>
 114:	02000000 	andeq	r0, r0, #0
 118:	0d0efb01 	vstreq	d15, [lr, #-4]
 11c:	01010100 	mrseq	r0, (UNDEF: 17)
 120:	00000001 	andeq	r0, r0, r1
 124:	01000001 	tsteq	r0, r1
 128:	2e776800 	cdpcs	8, 7, cr6, cr7, cr0, {0}
 12c:	00000063 	andeq	r0, r0, r3, rrx
 130:	05000000 	streq	r0, [r0, #-0]
 134:	0082e402 	addeq	lr, r2, r2, lsl #8
 138:	011c0300 	tsteq	ip, r0, lsl #6
 13c:	6867674b 	stmdavs	r7!, {r0, r1, r3, r6, r8, r9, sl, sp, lr}^
 140:	9e090367 	cdpls	3, 0, cr0, cr9, cr7, {3}
 144:	2f4e672f 	svccs	0x004e672f
 148:	674f5167 	strbvs	r5, [pc, -r7, ror #2]
 14c:	69696767 	stmdbvs	r9!, {r0, r1, r2, r5, r6, r8, r9, sl, sp, lr}^
 150:	696a6767 	stmdbvs	sl!, {r0, r1, r2, r5, r6, r8, r9, sl, sp, lr}^
 154:	0267a068 	rsbeq	sl, r7, #104	; 0x68
 158:	01010010 	tsteq	r1, r0, lsl r0

Disassembly of section .debug_info:

00000000 <.debug_info>:
   0:	00000050 	andeq	r0, r0, r0, asr r0
   4:	00000002 	andeq	r0, r0, r2
   8:	01040000 	mrseq	r0, (UNDEF: 4)
   c:	00000000 	andeq	r0, r0, r0
  10:	00008000 	andeq	r8, r0, r0
  14:	000080d0 	ldrdeq	r8, [r0], -r0
  18:	74636576 	strbtvc	r6, [r3], #-1398	; 0x576
  1c:	2e73726f 	cdpcs	2, 7, cr7, cr3, cr15, {3}
  20:	682f0073 	stmdavs	pc!, {r0, r1, r4, r5, r6}	; <UNPREDICTABLE>
  24:	2f656d6f 	svccs	0x00656d6f
  28:	616c6573 	smcvs	50771	; 0xc653
  2c:	756f616c 	strbvc	r6, [pc, #-364]!	; fffffec8 <__bss_end+0xffff7a9c>
  30:	542f7469 	strtpl	r7, [pc], #-1129	; 38 <_start-0x7fc8>
  34:	45532d50 	ldrbmi	r2, [r3, #-3408]	; 0xd50
  38:	736f2f41 	cmnvc	pc, #260	; 0x104
  3c:	2d656970 	stclcs	9, cr6, [r5, #-448]!	; 0xfffffe40
  40:	72617473 	rsbvc	r7, r1, #1929379840	; 0x73000000
  44:	4e470074 	mcrmi	0, 2, r0, cr7, cr4, {3}
  48:	53412055 	movtpl	r2, #4181	; 0x1055
  4c:	322e3220 	eorcc	r3, lr, #2
  50:	80010032 	andhi	r0, r1, r2, lsr r0
  54:	000000f2 	strdeq	r0, [r0], -r2
  58:	00140002 	andseq	r0, r4, r2
  5c:	01040000 	mrseq	r0, (UNDEF: 4)
  60:	00000054 	andeq	r0, r0, r4, asr r0
  64:	00006701 	andeq	r6, r0, r1, lsl #14
  68:	00000000 	andeq	r0, r0, r0
  6c:	0080d000 	addeq	sp, r0, r0
  70:	0081ac00 	addeq	sl, r1, r0, lsl #24
  74:	00006500 	andeq	r6, r0, r0, lsl #10
  78:	34010200 	strcc	r0, [r1], #-512	; 0x200
  7c:	01000000 	mrseq	r0, (UNDEF: 0)
  80:	007c0101 	rsbseq	r0, ip, r1, lsl #2
  84:	80d00000 	sbcshi	r0, r0, r0
  88:	812c0000 	teqhi	ip, r0
  8c:	00000000 	andeq	r0, r0, r0
  90:	7c010000 	stcvc	0, cr0, [r1], {-0}
  94:	03000000 	movweq	r0, #0
  98:	00000024 	andeq	r0, r0, r4, lsr #32
  9c:	007c0101 	rsbseq	r0, ip, r1, lsl #2
  a0:	91020000 	mrsls	r0, (UNDEF: 2)
  a4:	00750374 	rsbseq	r0, r5, r4, ror r3
  a8:	01010000 	mrseq	r0, (UNDEF: 1)
  ac:	0000007c 	andeq	r0, r0, ip, ror r0
  b0:	04709102 	ldrbteq	r9, [r0], #-258	; 0x102
  b4:	00000060 	andeq	r0, r0, r0, rrx
  b8:	007c0301 	rsbseq	r0, ip, r1, lsl #6
  bc:	91020000 	mrsls	r0, (UNDEF: 2)
  c0:	004a047c 	subeq	r0, sl, ip, ror r4
  c4:	04010000 	streq	r0, [r1], #-0
  c8:	0000007c 	andeq	r0, r0, ip, ror r0
  cc:	00789102 	rsbseq	r9, r8, r2, lsl #2
  d0:	69050405 	stmdbvs	r5, {r0, r2, sl}
  d4:	0600746e 	streq	r7, [r0], -lr, ror #8
  d8:	00003b01 	andeq	r3, r0, r1, lsl #22
  dc:	010b0100 	mrseq	r0, (UNDEF: 27)
  e0:	0000007c 	andeq	r0, r0, ip, ror r0
  e4:	0000812c 	andeq	r8, r0, ip, lsr #2
  e8:	00008180 	andeq	r8, r0, r0, lsl #3
  ec:	00000020 	andeq	r0, r0, r0, lsr #32
  f0:	0000be01 	andeq	fp, r0, r1, lsl #28
  f4:	61720700 	cmnvs	r2, r0, lsl #14
  f8:	0b010064 	bleq	40290 <__bss_end+0x37e64>
  fc:	0000007c 	andeq	r0, r0, ip, ror r0
 100:	046c9102 	strbteq	r9, [ip], #-258	; 0x102
 104:	00000070 	andeq	r0, r0, r0, ror r0
 108:	007c0d01 	rsbseq	r0, ip, r1, lsl #26
 10c:	91020000 	mrsls	r0, (UNDEF: 2)
 110:	01080074 	tsteq	r8, r4, ror r0
 114:	0000007d 	andeq	r0, r0, sp, ror r0
 118:	7c011001 	stcvc	0, cr1, [r1], {1}
 11c:	80000000 	andhi	r0, r0, r0
 120:	ac000081 	stcge	0, cr0, [r0], {129}	; 0x81
 124:	4c000081 	stcmi	0, cr0, [r0], {129}	; 0x81
 128:	01000000 	mrseq	r0, (UNDEF: 0)
 12c:	00002d04 	andeq	r2, r0, r4, lsl #26
 130:	7c120100 	ldfvcs	f0, [r2], {-0}
 134:	02000000 	andeq	r0, r0, #0
 138:	43047491 	movwmi	r7, #17553	; 0x4491
 13c:	01000000 	mrseq	r0, (UNDEF: 0)
 140:	00007c13 	andeq	r7, r0, r3, lsl ip
 144:	70910200 	addsvc	r0, r1, r0, lsl #4
 148:	015e0000 	cmpeq	lr, r0
 14c:	00020000 	andeq	r0, r2, r0
 150:	000000b2 	strheq	r0, [r0], -r2
 154:	00540104 	subseq	r0, r4, r4, lsl #2
 158:	83010000 	movwhi	r0, #4096	; 0x1000
 15c:	00000000 	andeq	r0, r0, r0
 160:	ac000000 	stcge	0, cr0, [r0], {-0}
 164:	e4000081 	str	r0, [r0], #-129	; 0x81
 168:	b0000082 	andlt	r0, r0, r2, lsl #1
 16c:	02000000 	andeq	r0, r0, #0
 170:	08006c66 	stmdaeq	r0, {r1, r2, r5, r6, sl, fp, sp, lr}
 174:	004d0301 	subeq	r0, sp, r1, lsl #6
 178:	b5030000 	strlt	r0, [r3, #-0]
 17c:	01000000 	mrseq	r0, (UNDEF: 0)
 180:	00004d04 	andeq	r4, r0, r4, lsl #26
 184:	00230200 	eoreq	r0, r3, r0, lsl #4
 188:	0000e703 	andeq	lr, r0, r3, lsl #14
 18c:	53050100 	movwpl	r0, #20736	; 0x5100
 190:	02000000 	andeq	r0, r0, #0
 194:	04000423 	streq	r0, [r0], #-1059	; 0x423
 198:	00002504 	andeq	r2, r0, r4, lsl #10
 19c:	07040500 	streq	r0, [r4, -r0, lsl #10]
 1a0:	00000126 	andeq	r0, r0, r6, lsr #2
 1a4:	00ba0106 	adcseq	r0, sl, r6, lsl #2
 1a8:	0c010000 	stceq	0, cr0, [r1], {-0}
 1ac:	00009f01 	andeq	r9, r0, r1, lsl #30
 1b0:	0081ac00 	addeq	sl, r1, r0, lsl #24
 1b4:	00826000 	addeq	r6, r2, r0
 1b8:	00007800 	andeq	r7, r0, r0, lsl #16
 1bc:	009f0100 	addseq	r0, pc, r0, lsl #2
 1c0:	e7070000 	str	r0, [r7, -r0]
 1c4:	01000000 	mrseq	r0, (UNDEF: 0)
 1c8:	0000530c 	andeq	r5, r0, ip, lsl #6
 1cc:	74910200 	ldrvc	r0, [r1], #512	; 0x200
 1d0:	01006608 	tsteq	r0, r8, lsl #12
 1d4:	00004d0e 	andeq	r4, r0, lr, lsl #26
 1d8:	09540100 	ldmdbeq	r4, {r8}^
 1dc:	0000008e 	andeq	r0, r0, lr, lsl #1
 1e0:	00a10e01 	adceq	r0, r1, r1, lsl #28
 1e4:	55010000 	strpl	r0, [r1, #-0]
 1e8:	04040a00 	streq	r0, [r4], #-2560	; 0xa00
 1ec:	00004d04 	andeq	r4, r0, r4, lsl #26
 1f0:	9c010b00 	stcls	11, cr0, [r1], {-0}
 1f4:	01000000 	mrseq	r0, (UNDEF: 0)
 1f8:	82600122 	rsbhi	r0, r0, #-2147483640	; 0x80000008
 1fc:	82a80000 	adchi	r0, r8, #0
 200:	00a40000 	adceq	r0, r4, r0
 204:	e9010000 	stmdb	r1, {}	; <UNPREDICTABLE>
 208:	0c000000 	stceq	0, cr0, [r0], {-0}
 20c:	00727470 	rsbseq	r7, r2, r0, ror r4
 210:	009f2201 	addseq	r2, pc, r1, lsl #4
 214:	91020000 	mrsls	r0, (UNDEF: 2)
 218:	00e70774 	rsceq	r0, r7, r4, ror r7
 21c:	22010000 	andcs	r0, r1, #0
 220:	00000053 	andeq	r0, r0, r3, asr r0
 224:	08709102 	ldmdaeq	r0!, {r1, r8, ip, pc}^
 228:	24010066 	strcs	r0, [r1], #-102	; 0x66
 22c:	0000004d 	andeq	r0, r0, sp, asr #32
 230:	0b005401 	bleq	1523c <__bss_end+0xce10>
 234:	0000c901 	andeq	ip, r0, r1, lsl #18
 238:	012c0100 	teqeq	ip, r0, lsl #2
 23c:	000082a8 	andeq	r8, r0, r8, lsr #5
 240:	000082e4 	andeq	r8, r0, r4, ror #5
 244:	000000d0 	ldrdeq	r0, [r0], -r0	; <UNPREDICTABLE>
 248:	00012001 	andeq	r2, r1, r1
 24c:	00aa0700 	adceq	r0, sl, r0, lsl #14
 250:	2c010000 	stccs	0, cr0, [r1], {-0}
 254:	00000120 	andeq	r0, r0, r0, lsr #2
 258:	077c9102 	ldrbeq	r9, [ip, -r2, lsl #2]!
 25c:	000000e2 	andeq	r0, r0, r2, ror #1
 260:	00532c01 	subseq	r2, r3, r1, lsl #24
 264:	91020000 	mrsls	r0, (UNDEF: 2)
 268:	04040078 	streq	r0, [r4], #-120	; 0x78
 26c:	00000126 	andeq	r0, r0, r6, lsr #2
 270:	f5080105 			; <UNDEFINED> instruction: 0xf5080105
 274:	08000000 	stmdaeq	r0, {}	; <UNPREDICTABLE>
 278:	00706f74 	rsbseq	r6, r0, r4, ror pc
 27c:	01200801 	teqeq	r0, r1, lsl #16
 280:	03050000 	movweq	r0, #20480	; 0x5000
 284:	00008424 	andeq	r8, r0, r4, lsr #8
 288:	0000d709 	andeq	sp, r0, r9, lsl #14
 28c:	20090100 	andcs	r0, r9, r0, lsl #2
 290:	05000001 	streq	r0, [r0, #-1]
 294:	00842803 	addeq	r2, r4, r3, lsl #16
 298:	00930d00 	addseq	r0, r3, r0, lsl #26
 29c:	06010000 	streq	r0, [r1], -r0
 2a0:	0000004d 	andeq	r0, r0, sp, asr #32
 2a4:	20030501 	andcs	r0, r3, r1, lsl #10
 2a8:	00000084 	andeq	r0, r0, r4, lsl #1
 2ac:	000000b8 	strheq	r0, [r0], -r8
 2b0:	01820002 	orreq	r0, r2, r2
 2b4:	01040000 	mrseq	r0, (UNDEF: 4)
 2b8:	00000054 	andeq	r0, r0, r4, asr r0
 2bc:	0000fa01 	andeq	pc, r0, r1, lsl #20
 2c0:	00000000 	andeq	r0, r0, r0
 2c4:	0082e400 	addeq	lr, r2, r0, lsl #8
 2c8:	00842000 	addeq	r2, r4, r0
 2cc:	00010d00 	andeq	r0, r1, r0, lsl #26
 2d0:	07020200 	streq	r0, [r2, -r0, lsl #4]
 2d4:	00000120 	andeq	r0, r0, r0, lsr #2
 2d8:	26070402 	strcs	r0, [r7], -r2, lsl #8
 2dc:	02000001 	andeq	r0, r0, #1
 2e0:	00ec0801 	rsceq	r0, ip, r1, lsl #16
 2e4:	01030000 	mrseq	r0, (UNDEF: 3)
 2e8:	00000106 	andeq	r0, r0, r6, lsl #2
 2ec:	82e41c01 	rschi	r1, r4, #256	; 0x100
 2f0:	83300000 	teqhi	r0, #0
 2f4:	00f00000 	rscseq	r0, r0, r0
 2f8:	61010000 	mrsvs	r0, (UNDEF: 1)
 2fc:	04000000 	streq	r0, [r0], #-0
 300:	01007872 	tsteq	r0, r2, ror r8
 304:	00002c1e 	andeq	r2, r0, lr, lsl ip
 308:	74910200 	ldrvc	r0, [r1], #512	; 0x200
 30c:	3b010500 	blcc	41714 <__bss_end+0x392e8>
 310:	01000001 	tsteq	r0, r1
 314:	0083302b 	addeq	r3, r3, fp, lsr #32
 318:	00834800 	addeq	r4, r3, r0, lsl #16
 31c:	00011c00 	andeq	r1, r1, r0, lsl #24
 320:	01050100 	mrseq	r0, (UNDEF: 21)
 324:	000000ff 	strdeq	r0, [r0], -pc	; <UNPREDICTABLE>
 328:	83483101 	movthi	r3, #33025	; 0x8101
 32c:	83600000 	cmnhi	r0, #0
 330:	013c0000 	teqeq	ip, r0
 334:	06010000 	streq	r0, [r1], -r0
 338:	00013301 	andeq	r3, r1, r1, lsl #6
 33c:	603a0100 	eorsvs	r0, sl, r0, lsl #2
 340:	20000083 	andcs	r0, r0, r3, lsl #1
 344:	5c000084 	stcpl	0, cr0, [r0], {132}	; 0x84
 348:	01000001 	tsteq	r0, r1
 34c:	00617204 	rsbeq	r7, r1, r4, lsl #4
 350:	002c3c01 	eoreq	r3, ip, r1, lsl #24
 354:	91020000 	mrsls	r0, (UNDEF: 2)
 358:	78720474 	ldmdavc	r2!, {r2, r4, r5, r6, sl}^
 35c:	2c3d0100 	ldfcss	f0, [sp], #-0
 360:	02000000 	andeq	r0, r0, #0
 364:	00007091 	muleq	r0, r1, r0

Disassembly of section .debug_abbrev:

00000000 <.debug_abbrev>:
   0:	10001101 	andne	r1, r0, r1, lsl #2
   4:	12011106 	andne	r1, r1, #-2147483647	; 0x80000001
   8:	1b080301 	blne	200c14 <__bss_end+0x1f87e8>
   c:	13082508 	movwne	r2, #34056	; 0x8508
  10:	00000005 	andeq	r0, r0, r5
  14:	25011101 	strcs	r1, [r1, #-257]	; 0x101
  18:	030b130e 	movweq	r1, #45838	; 0xb30e
  1c:	110e1b0e 	tstne	lr, lr, lsl #22
  20:	10011201 	andne	r1, r1, r1, lsl #4
  24:	02000006 	andeq	r0, r0, #6
  28:	0c3f012e 	ldfeqs	f0, [pc], #-184	; ffffff78 <__bss_end+0xffff7b4c>
  2c:	0b3a0e03 	bleq	e83840 <__bss_end+0xe7b414>
  30:	0c270b3b 	stceq	11, cr0, [r7], #-236	; 0xffffff14
  34:	01111349 	tsteq	r1, r9, asr #6
  38:	06400112 			; <UNDEFINED> instruction: 0x06400112
  3c:	010c4297 			; <UNDEFINED> instruction: 0x010c4297
  40:	03000013 	movweq	r0, #19
  44:	0e030005 	cdpeq	0, 0, cr0, cr3, cr5, {0}
  48:	0b3b0b3a 	bleq	ec2d38 <__bss_end+0xeba90c>
  4c:	0a021349 	beq	84d78 <__bss_end+0x7c94c>
  50:	34040000 	strcc	r0, [r4], #-0
  54:	3a0e0300 	bcc	380c5c <__bss_end+0x378830>
  58:	490b3b0b 	stmdbmi	fp, {r0, r1, r3, r8, r9, fp, ip, sp}
  5c:	000a0213 	andeq	r0, sl, r3, lsl r2
  60:	00240500 	eoreq	r0, r4, r0, lsl #10
  64:	0b3e0b0b 	bleq	f82c98 <__bss_end+0xf7a86c>
  68:	00000803 	andeq	r0, r0, r3, lsl #16
  6c:	3f012e06 	svccc	0x00012e06
  70:	3a0e030c 	bcc	380ca8 <__bss_end+0x37887c>
  74:	270b3b0b 	strcs	r3, [fp, -fp, lsl #22]
  78:	1113490c 	tstne	r3, ip, lsl #18
  7c:	40011201 	andmi	r1, r1, r1, lsl #4
  80:	0c429606 	mcrreq	6, 0, r9, r2, cr6
  84:	00001301 	andeq	r1, r0, r1, lsl #6
  88:	03000507 	movweq	r0, #1287	; 0x507
  8c:	3b0b3a08 	blcc	2ce8b4 <__bss_end+0x2c6488>
  90:	0213490b 	andseq	r4, r3, #180224	; 0x2c000
  94:	0800000a 	stmdaeq	r0, {r1, r3}
  98:	0c3f012e 	ldfeqs	f0, [pc], #-184	; ffffffe8 <__bss_end+0xffff7bbc>
  9c:	0b3a0e03 	bleq	e838b0 <__bss_end+0xe7b484>
  a0:	0c270b3b 	stceq	11, cr0, [r7], #-236	; 0xffffff14
  a4:	01111349 	tsteq	r1, r9, asr #6
  a8:	06400112 			; <UNDEFINED> instruction: 0x06400112
  ac:	000c4296 	muleq	ip, r6, r2
  b0:	11010000 	mrsne	r0, (UNDEF: 1)
  b4:	130e2501 	movwne	r2, #58625	; 0xe501
  b8:	1b0e030b 	blne	380cec <__bss_end+0x3788c0>
  bc:	1201110e 	andne	r1, r1, #-2147483645	; 0x80000003
  c0:	00061001 	andeq	r1, r6, r1
  c4:	01130200 	tsteq	r3, r0, lsl #4
  c8:	0b0b0803 	bleq	2c20dc <__bss_end+0x2b9cb0>
  cc:	0b3b0b3a 	bleq	ec2dbc <__bss_end+0xeba990>
  d0:	00001301 	andeq	r1, r0, r1, lsl #6
  d4:	03000d03 	movweq	r0, #3331	; 0xd03
  d8:	3b0b3a0e 	blcc	2ce918 <__bss_end+0x2c64ec>
  dc:	3813490b 	ldmdacc	r3, {r0, r1, r3, r8, fp, lr}
  e0:	0400000a 	streq	r0, [r0], #-10
  e4:	0b0b000f 	bleq	2c0128 <__bss_end+0x2b7cfc>
  e8:	00001349 	andeq	r1, r0, r9, asr #6
  ec:	0b002405 	bleq	9108 <__bss_end+0xcdc>
  f0:	030b3e0b 	movweq	r3, #48651	; 0xbe0b
  f4:	0600000e 	streq	r0, [r0], -lr
  f8:	0c3f012e 	ldfeqs	f0, [pc], #-184	; 48 <_start-0x7fb8>
  fc:	0b3a0e03 	bleq	e83910 <__bss_end+0xe7b4e4>
 100:	0c270b3b 	stceq	11, cr0, [r7], #-236	; 0xffffff14
 104:	01111349 	tsteq	r1, r9, asr #6
 108:	06400112 			; <UNDEFINED> instruction: 0x06400112
 10c:	010c4297 			; <UNDEFINED> instruction: 0x010c4297
 110:	07000013 	smladeq	r0, r3, r0, r0
 114:	0e030005 	cdpeq	0, 0, cr0, cr3, cr5, {0}
 118:	0b3b0b3a 	bleq	ec2e08 <__bss_end+0xeba9dc>
 11c:	0a021349 	beq	84e48 <__bss_end+0x7ca1c>
 120:	34080000 	strcc	r0, [r8], #-0
 124:	3a080300 	bcc	200d2c <__bss_end+0x1f8900>
 128:	490b3b0b 	stmdbmi	fp, {r0, r1, r3, r8, r9, fp, ip, sp}
 12c:	000a0213 	andeq	r0, sl, r3, lsl r2
 130:	00340900 	eorseq	r0, r4, r0, lsl #18
 134:	0b3a0e03 	bleq	e83948 <__bss_end+0xe7b51c>
 138:	13490b3b 	movtne	r0, #39739	; 0x9b3b
 13c:	00000a02 	andeq	r0, r0, r2, lsl #20
 140:	0b000f0a 	bleq	3d70 <_start-0x4290>
 144:	0b00000b 	bleq	178 <_start-0x7e88>
 148:	0c3f012e 	ldfeqs	f0, [pc], #-184	; 98 <_start-0x7f68>
 14c:	0b3a0e03 	bleq	e83960 <__bss_end+0xe7b534>
 150:	0c270b3b 	stceq	11, cr0, [r7], #-236	; 0xffffff14
 154:	01120111 	tsteq	r2, r1, lsl r1
 158:	42970640 	addsmi	r0, r7, #67108864	; 0x4000000
 15c:	0013010c 	andseq	r0, r3, ip, lsl #2
 160:	00050c00 	andeq	r0, r5, r0, lsl #24
 164:	0b3a0803 	bleq	e82178 <__bss_end+0xe79d4c>
 168:	13490b3b 	movtne	r0, #39739	; 0x9b3b
 16c:	00000a02 	andeq	r0, r0, r2, lsl #20
 170:	0300340d 	movweq	r3, #1037	; 0x40d
 174:	3b0b3a0e 	blcc	2ce9b4 <__bss_end+0x2c6588>
 178:	3f13490b 	svccc	0x0013490b
 17c:	000a020c 	andeq	r0, sl, ip, lsl #4
 180:	11010000 	mrsne	r0, (UNDEF: 1)
 184:	130e2501 	movwne	r2, #58625	; 0xe501
 188:	1b0e030b 	blne	380dbc <__bss_end+0x378990>
 18c:	1201110e 	andne	r1, r1, #-2147483645	; 0x80000003
 190:	00061001 	andeq	r1, r6, r1
 194:	00240200 	eoreq	r0, r4, r0, lsl #4
 198:	0b3e0b0b 	bleq	f82dcc <__bss_end+0xf7a9a0>
 19c:	00000e03 	andeq	r0, r0, r3, lsl #28
 1a0:	3f012e03 	svccc	0x00012e03
 1a4:	3a0e030c 	bcc	380ddc <__bss_end+0x3789b0>
 1a8:	110b3b0b 	tstne	fp, fp, lsl #22
 1ac:	40011201 	andmi	r1, r1, r1, lsl #4
 1b0:	0c429606 	mcrreq	6, 0, r9, r2, cr6
 1b4:	00001301 	andeq	r1, r0, r1, lsl #6
 1b8:	03003404 	movweq	r3, #1028	; 0x404
 1bc:	3b0b3a08 	blcc	2ce9e4 <__bss_end+0x2c65b8>
 1c0:	0213490b 	andseq	r4, r3, #180224	; 0x2c000
 1c4:	0500000a 	streq	r0, [r0, #-10]
 1c8:	0c3f002e 	ldceq	0, cr0, [pc], #-184	; 118 <_start-0x7ee8>
 1cc:	0b3a0e03 	bleq	e839e0 <__bss_end+0xe7b5b4>
 1d0:	01110b3b 	tsteq	r1, fp, lsr fp
 1d4:	06400112 			; <UNDEFINED> instruction: 0x06400112
 1d8:	000c4296 	muleq	ip, r6, r2
 1dc:	012e0600 	teqeq	lr, r0, lsl #12
 1e0:	0e030c3f 	mcreq	12, 0, r0, cr3, cr15, {1}
 1e4:	0b3b0b3a 	bleq	ec2ed4 <__bss_end+0xebaaa8>
 1e8:	01120111 	tsteq	r2, r1, lsl r1
 1ec:	42960640 	addsmi	r0, r6, #67108864	; 0x4000000
 1f0:	0000000c 	andeq	r0, r0, ip

Disassembly of section .debug_aranges:

00000000 <.debug_aranges>:
   0:	0000001c 	andeq	r0, r0, ip, lsl r0
   4:	00000002 	andeq	r0, r0, r2
   8:	00040000 	andeq	r0, r4, r0
   c:	00000000 	andeq	r0, r0, r0
  10:	00008000 	andeq	r8, r0, r0
  14:	000000d0 	ldrdeq	r0, [r0], -r0	; <UNPREDICTABLE>
	...
  20:	0000001c 	andeq	r0, r0, ip, lsl r0
  24:	00540002 	subseq	r0, r4, r2
  28:	00040000 	andeq	r0, r4, r0
  2c:	00000000 	andeq	r0, r0, r0
  30:	000080d0 	ldrdeq	r8, [r0], -r0
  34:	000000dc 	ldrdeq	r0, [r0], -ip
	...
  40:	0000001c 	andeq	r0, r0, ip, lsl r0
  44:	014a0002 	cmpeq	sl, r2
  48:	00040000 	andeq	r0, r4, r0
  4c:	00000000 	andeq	r0, r0, r0
  50:	000081ac 	andeq	r8, r0, ip, lsr #3
  54:	00000138 	andeq	r0, r0, r8, lsr r1
	...
  60:	0000001c 	andeq	r0, r0, ip, lsl r0
  64:	02ac0002 	adceq	r0, ip, #2
  68:	00040000 	andeq	r0, r4, r0
  6c:	00000000 	andeq	r0, r0, r0
  70:	000082e4 	andeq	r8, r0, r4, ror #5
  74:	0000013c 	andeq	r0, r0, ip, lsr r1
	...

Disassembly of section .debug_loc:

00000000 <.debug_loc>:
   0:	00000000 	andeq	r0, r0, r0
   4:	00000004 	andeq	r0, r0, r4
   8:	007d0002 	rsbseq	r0, sp, r2
   c:	00000004 	andeq	r0, r0, r4
  10:	0000005c 	andeq	r0, r0, ip, asr r0
  14:	107d0002 	rsbsne	r0, sp, r2
	...
  20:	0000005c 	andeq	r0, r0, ip, asr r0
  24:	00000060 	andeq	r0, r0, r0, rrx
  28:	007d0002 	rsbseq	r0, sp, r2
  2c:	00000060 	andeq	r0, r0, r0, rrx
  30:	00000064 	andeq	r0, r0, r4, rrx
  34:	047d0002 	ldrbteq	r0, [sp], #-2
  38:	00000064 	andeq	r0, r0, r4, rrx
  3c:	000000b0 	strheq	r0, [r0], -r0	; <UNPREDICTABLE>
  40:	187d0002 	ldmdane	sp!, {r1}^
	...
  4c:	000000b0 	strheq	r0, [r0], -r0	; <UNPREDICTABLE>
  50:	000000b4 	strheq	r0, [r0], -r4
  54:	007d0002 	rsbseq	r0, sp, r2
  58:	000000b4 	strheq	r0, [r0], -r4
  5c:	000000b8 	strheq	r0, [r0], -r8
  60:	047d0002 	ldrbteq	r0, [sp], #-2
  64:	000000b8 	strheq	r0, [r0], -r8
  68:	000000dc 	ldrdeq	r0, [r0], -ip
  6c:	107d0002 	rsbsne	r0, sp, r2
	...
  7c:	00000004 	andeq	r0, r0, r4
  80:	007d0002 	rsbseq	r0, sp, r2
  84:	00000004 	andeq	r0, r0, r4
  88:	00000008 	andeq	r0, r0, r8
  8c:	087d0002 	ldmdaeq	sp!, {r1}^
  90:	00000008 	andeq	r0, r0, r8
  94:	000000b4 	strheq	r0, [r0], -r4
  98:	107d0002 	rsbsne	r0, sp, r2
	...
  a4:	000000b4 	strheq	r0, [r0], -r4
  a8:	000000b8 	strheq	r0, [r0], -r8
  ac:	007d0002 	rsbseq	r0, sp, r2
  b0:	000000b8 	strheq	r0, [r0], -r8
  b4:	000000bc 	strheq	r0, [r0], -ip
  b8:	047d0002 	ldrbteq	r0, [sp], #-2
  bc:	000000bc 	strheq	r0, [r0], -ip
  c0:	000000fc 	strdeq	r0, [r0], -ip
  c4:	107d0002 	rsbsne	r0, sp, r2
	...
  d0:	000000fc 	strdeq	r0, [r0], -ip
  d4:	00000100 	andeq	r0, r0, r0, lsl #2
  d8:	007d0002 	rsbseq	r0, sp, r2
  dc:	00000100 	andeq	r0, r0, r0, lsl #2
  e0:	00000138 	andeq	r0, r0, r8, lsr r1
  e4:	087d0002 	ldmdaeq	sp!, {r1}^
	...
  f4:	00000004 	andeq	r0, r0, r4
  f8:	007d0002 	rsbseq	r0, sp, r2
  fc:	00000004 	andeq	r0, r0, r4
 100:	00000008 	andeq	r0, r0, r8
 104:	047d0002 	ldrbteq	r0, [sp], #-2
 108:	00000008 	andeq	r0, r0, r8
 10c:	0000004c 	andeq	r0, r0, ip, asr #32
 110:	107d0002 	rsbsne	r0, sp, r2
	...
 11c:	0000004c 	andeq	r0, r0, ip, asr #32
 120:	00000050 	andeq	r0, r0, r0, asr r0
 124:	007d0002 	rsbseq	r0, sp, r2
 128:	00000050 	andeq	r0, r0, r0, asr r0
 12c:	00000064 	andeq	r0, r0, r4, rrx
 130:	087d0002 	ldmdaeq	sp!, {r1}^
	...
 13c:	00000064 	andeq	r0, r0, r4, rrx
 140:	00000068 	andeq	r0, r0, r8, rrx
 144:	007d0002 	rsbseq	r0, sp, r2
 148:	00000068 	andeq	r0, r0, r8, rrx
 14c:	0000007c 	andeq	r0, r0, ip, ror r0
 150:	087d0002 	ldmdaeq	sp!, {r1}^
	...
 15c:	0000007c 	andeq	r0, r0, ip, ror r0
 160:	00000080 	andeq	r0, r0, r0, lsl #1
 164:	007d0002 	rsbseq	r0, sp, r2
 168:	00000080 	andeq	r0, r0, r0, lsl #1
 16c:	00000084 	andeq	r0, r0, r4, lsl #1
 170:	047d0002 	ldrbteq	r0, [sp], #-2
 174:	00000084 	andeq	r0, r0, r4, lsl #1
 178:	0000013c 	andeq	r0, r0, ip, lsr r1
 17c:	107d0002 	rsbsne	r0, sp, r2
	...

Disassembly of section .debug_str:

00000000 <.debug_str>:
   0:	6d6f682f 	stclvs	8, cr6, [pc, #-188]!	; ffffff4c <__bss_end+0xffff7b20>
   4:	65732f65 	ldrbvs	r2, [r3, #-3941]!	; 0xf65
   8:	616c616c 	cmnvs	ip, ip, ror #2
   c:	7469756f 	strbtvc	r7, [r9], #-1391	; 0x56f
  10:	2d50542f 	cfldrdcs	mvd5, [r0, #-188]	; 0xffffff44
  14:	2f414553 	svccs	0x00414553
  18:	6970736f 	ldmdbvs	r0!, {r0, r1, r2, r3, r5, r6, r8, r9, ip, sp, lr}^
  1c:	74732d65 	ldrbtvc	r2, [r3], #-3429	; 0xd65
  20:	00747261 	rsbseq	r7, r4, r1, ror #4
  24:	69766964 	ldmdbvs	r6!, {r2, r5, r6, r8, fp, sp, lr}^
  28:	646e6564 	strbtvs	r6, [lr], #-1380	; 0x564
  2c:	64617200 	strbtvs	r7, [r1], #-512	; 0x200
  30:	00737569 	rsbseq	r7, r3, r9, ror #10
  34:	69766964 	ldmdbvs	r6!, {r2, r5, r6, r8, fp, sp, lr}^
  38:	63006564 	movwvs	r6, #1380	; 0x564
  3c:	75706d6f 	ldrbvc	r6, [r0, #-3439]!	; 0xd6f
  40:	765f6574 			; <UNDEFINED> instruction: 0x765f6574
  44:	6d756c6f 	ldclvs	12, cr6, [r5, #-444]!	; 0xfffffe44
  48:	65720065 	ldrbvs	r0, [r2, #-101]!	; 0x65
  4c:	6e69616d 	powvsez	f6, f1, #5.0
  50:	00726564 	rsbseq	r6, r2, r4, ror #10
  54:	20554e47 	subscs	r4, r5, r7, asr #28
  58:	2e342043 	cdpcs	0, 3, cr2, cr4, cr3, {2}
  5c:	00312e37 	eorseq	r2, r1, r7, lsr lr
  60:	75736572 	ldrbvc	r6, [r3, #-1394]!	; 0x572
  64:	6b00746c 	blvs	1d21c <__bss_end+0x14df0>
  68:	656e7265 	strbvs	r7, [lr, #-613]!	; 0x265
  6c:	00632e6c 	rsbeq	r2, r3, ip, ror #28
  70:	33646172 	cmncc	r4, #-2147483620	; 0x8000001c
  74:	76696400 	strbtvc	r6, [r9], -r0, lsl #8
  78:	726f7369 	rsbvc	r7, pc, #-1543503871	; 0xa4000001
  7c:	616d6b00 	cmnvs	sp, r0, lsl #22
  80:	70006e69 	andvc	r6, r0, r9, ror #28
  84:	6c417968 	mcrrvs	9, 6, r7, r1, cr8
  88:	2e636f6c 	cdpcs	15, 6, cr6, cr3, cr12, {3}
  8c:	72700063 	rsbsvc	r0, r0, #99	; 0x63
  90:	66007665 	strvs	r7, [r0], -r5, ror #12
  94:	6c656572 	cfstr64vs	mvdx6, [r5], #-456	; 0xfffffe38
  98:	00747369 	rsbseq	r7, r4, r9, ror #6
  9c:	41796870 	cmnmi	r9, r0, ror r8
  a0:	636f6c6c 	cmnvs	pc, #27648	; 0x6c00
  a4:	6572665f 	ldrbvs	r6, [r2, #-1631]!	; 0x65f
  a8:	65680065 	strbvs	r0, [r8, #-101]!	; 0x65
  ac:	735f7061 	cmpvc	pc, #97	; 0x61
  b0:	74726174 	ldrbtvc	r6, [r2], #-372	; 0x174
  b4:	78656e00 	stmdavc	r5!, {r9, sl, fp, sp, lr}^
  b8:	68700074 	ldmdavs	r0!, {r2, r4, r5, r6}^
  bc:	6c6c4179 	stfvse	f4, [ip], #-484	; 0xfffffe1c
  c0:	615f636f 	cmpvs	pc, pc, ror #6
  c4:	636f6c6c 	cmnvs	pc, #27648	; 0x6c00
  c8:	79687000 	stmdbvc	r8!, {ip, sp, lr}^
  cc:	6f6c6c41 	svcvs	0x006c6c41
  d0:	6e695f63 	cdpvs	15, 6, cr5, cr9, cr3, {3}
  d4:	68007469 	stmdavs	r0, {r0, r3, r5, r6, sl, ip, sp, lr}
  d8:	5f706165 	svcpl	0x00706165
  dc:	696d696c 	stmdbvs	sp!, {r2, r3, r5, r6, r8, fp, sp, lr}^
  e0:	65680074 	strbvs	r0, [r8, #-116]!	; 0x74
  e4:	735f7061 	cmpvc	pc, #97	; 0x61
  e8:	00657a69 	rsbeq	r7, r5, r9, ror #20
  ec:	69736e75 	ldmdbvs	r3!, {r0, r2, r4, r5, r6, r9, sl, fp, sp, lr}^
  f0:	64656e67 	strbtvs	r6, [r5], #-3687	; 0xe67
  f4:	61686320 	cmnvs	r8, r0, lsr #6
  f8:	77680072 			; <UNDEFINED> instruction: 0x77680072
  fc:	6c00632e 	stcvs	3, cr6, [r0], {46}	; 0x2e
 100:	6f5f6465 	svcvs	0x005f6465
 104:	6573006e 	ldrbvs	r0, [r3, #-110]!	; 0x6e
 108:	69745f74 	ldmdbvs	r4!, {r2, r4, r5, r6, r8, r9, sl, fp, ip, lr}^
 10c:	615f6b63 	cmpvs	pc, r3, ror #22
 110:	655f646e 	ldrbvs	r6, [pc, #-1134]	; fffffcaa <__bss_end+0xffff787e>
 114:	6c62616e 	stfvse	f6, [r2], #-440	; 0xfffffe48
 118:	69745f65 	ldmdbvs	r4!, {r0, r2, r5, r6, r8, r9, sl, fp, ip, lr}^
 11c:	0072656d 	rsbseq	r6, r2, sp, ror #10
 120:	726f6873 	rsbvc	r6, pc, #7536640	; 0x730000
 124:	6e752074 	mrcvs	0, 3, r2, cr5, cr4, {3}
 128:	6e676973 	mcrvs	9, 3, r6, cr7, cr3, {3}
 12c:	69206465 	stmdbvs	r0!, {r0, r2, r5, r6, sl, sp, lr}
 130:	6900746e 	stmdbvs	r0, {r1, r2, r3, r5, r6, sl, ip, sp, lr}
 134:	5f74696e 	svcpl	0x0074696e
 138:	6c007768 	stcvs	7, cr7, [r0], {104}	; 0x68
 13c:	6f5f6465 	svcvs	0x005f6465
 140:	Address 0x0000000000000140 is out of bounds.


Disassembly of section .debug_frame:

00000000 <.debug_frame>:
   0:	0000000c 	andeq	r0, r0, ip
   4:	ffffffff 			; <UNDEFINED> instruction: 0xffffffff
   8:	7c020001 	stcvc	0, cr0, [r2], {1}
   c:	000d0c0e 	andeq	r0, sp, lr, lsl #24
  10:	00000010 	andeq	r0, r0, r0, lsl r0
  14:	00000000 	andeq	r0, r0, r0
  18:	000080d0 	ldrdeq	r8, [r0], -r0
  1c:	0000005c 	andeq	r0, r0, ip, asr r0
  20:	00100e42 	andseq	r0, r0, r2, asr #28
  24:	00000014 	andeq	r0, r0, r4, lsl r0
  28:	00000000 	andeq	r0, r0, r0
  2c:	0000812c 	andeq	r8, r0, ip, lsr #2
  30:	00000054 	andeq	r0, r0, r4, asr r0
  34:	8e040e42 	cdphi	14, 0, cr0, cr4, cr2, {2}
  38:	180e4201 	stmdane	lr, {r0, r9, lr}
  3c:	00000014 	andeq	r0, r0, r4, lsl r0
  40:	00000000 	andeq	r0, r0, r0
  44:	00008180 	andeq	r8, r0, r0, lsl #3
  48:	0000002c 	andeq	r0, r0, ip, lsr #32
  4c:	8e040e42 	cdphi	14, 0, cr0, cr4, cr2, {2}
  50:	100e4201 	andne	r4, lr, r1, lsl #4
  54:	0000000c 	andeq	r0, r0, ip
  58:	ffffffff 			; <UNDEFINED> instruction: 0xffffffff
  5c:	7c020001 	stcvc	0, cr0, [r2], {1}
  60:	000d0c0e 	andeq	r0, sp, lr, lsl #24
  64:	00000018 	andeq	r0, r0, r8, lsl r0
  68:	00000054 	andeq	r0, r0, r4, asr r0
  6c:	000081ac 	andeq	r8, r0, ip, lsr #3
  70:	000000b4 	strheq	r0, [r0], -r4
  74:	84080e42 	strhi	r0, [r8], #-3650	; 0xe42
  78:	42018502 	andmi	r8, r1, #8388608	; 0x800000
  7c:	0000100e 	andeq	r1, r0, lr
  80:	00000014 	andeq	r0, r0, r4, lsl r0
  84:	00000054 	andeq	r0, r0, r4, asr r0
  88:	00008260 	andeq	r8, r0, r0, ror #4
  8c:	00000048 	andeq	r0, r0, r8, asr #32
  90:	84040e42 	strhi	r0, [r4], #-3650	; 0xe42
  94:	100e4201 	andne	r4, lr, r1, lsl #4
  98:	00000010 	andeq	r0, r0, r0, lsl r0
  9c:	00000054 	andeq	r0, r0, r4, asr r0
  a0:	000082a8 	andeq	r8, r0, r8, lsr #5
  a4:	0000003c 	andeq	r0, r0, ip, lsr r0
  a8:	00080e42 	andeq	r0, r8, r2, asr #28
  ac:	0000000c 	andeq	r0, r0, ip
  b0:	ffffffff 			; <UNDEFINED> instruction: 0xffffffff
  b4:	7c020001 	stcvc	0, cr0, [r2], {1}
  b8:	000d0c0e 	andeq	r0, sp, lr, lsl #24
  bc:	00000014 	andeq	r0, r0, r4, lsl r0
  c0:	000000ac 	andeq	r0, r0, ip, lsr #1
  c4:	000082e4 	andeq	r8, r0, r4, ror #5
  c8:	0000004c 	andeq	r0, r0, ip, asr #32
  cc:	8e040e42 	cdphi	14, 0, cr0, cr4, cr2, {2}
  d0:	100e4201 	andne	r4, lr, r1, lsl #4
  d4:	00000014 	andeq	r0, r0, r4, lsl r0
  d8:	000000ac 	andeq	r0, r0, ip, lsr #1
  dc:	00008330 	andeq	r8, r0, r0, lsr r3
  e0:	00000018 	andeq	r0, r0, r8, lsl r0
  e4:	83080e42 	movwhi	r0, #36418	; 0x8e42
  e8:	00018e02 	andeq	r8, r1, r2, lsl #28
  ec:	00000014 	andeq	r0, r0, r4, lsl r0
  f0:	000000ac 	andeq	r0, r0, ip, lsr #1
  f4:	00008348 	andeq	r8, r0, r8, asr #6
  f8:	00000018 	andeq	r0, r0, r8, lsl r0
  fc:	83080e42 	movwhi	r0, #36418	; 0x8e42
 100:	00018e02 	andeq	r8, r1, r2, lsl #28
 104:	00000014 	andeq	r0, r0, r4, lsl r0
 108:	000000ac 	andeq	r0, r0, ip, lsr #1
 10c:	00008360 	andeq	r8, r0, r0, ror #6
 110:	000000c0 	andeq	r0, r0, r0, asr #1
 114:	8e040e42 	cdphi	14, 0, cr0, cr4, cr2, {2}
 118:	100e4201 	andne	r4, lr, r1, lsl #4
