
kernel.elf:     file format elf32-littlearm


Disassembly of section .text:

00008000 <_start>:
    8000:	e59ff018 	ldr	pc, [pc, #24]	; 8020 <reset_handler>
    8004:	e59ff018 	ldr	pc, [pc, #24]	; 8024 <undefined_handler>
    8008:	e59ff018 	ldr	pc, [pc, #24]	; 8028 <swi_handler>
    800c:	e59ff018 	ldr	pc, [pc, #24]	; 802c <prefetch_handler>
    8010:	e59ff018 	ldr	pc, [pc, #24]	; 8030 <data_handler>
    8014:	e59ff018 	ldr	pc, [pc, #24]	; 8034 <unused_handler>
    8018:	e59ff018 	ldr	pc, [pc, #24]	; 8038 <irq_handler>
    801c:	e59ff018 	ldr	pc, [pc, #24]	; 803c <fiq_handler>

00008020 <reset_handler>:
    8020:	00008040 	andeq	r8, r0, r0, asr #32

00008024 <undefined_handler>:
    8024:	00008084 	andeq	r8, r0, r4, lsl #1

00008028 <swi_handler>:
    8028:	00008088 	andeq	r8, r0, r8, lsl #1

0000802c <prefetch_handler>:
    802c:	0000808c 	andeq	r8, r0, ip, lsl #1

00008030 <data_handler>:
    8030:	00008090 	muleq	r0, r0, r0

00008034 <unused_handler>:
    8034:	00008094 	muleq	r0, r4, r0

00008038 <irq_handler>:
    8038:	000080cc 	andeq	r8, r0, ip, asr #1

0000803c <fiq_handler>:
    803c:	00008098 	muleq	r0, r8, r0

00008040 <reset>:
    8040:	e3a00902 	mov	r0, #32768	; 0x8000
    8044:	e3a01000 	mov	r1, #0
    8048:	e8b003fc 	ldm	r0!, {r2, r3, r4, r5, r6, r7, r8, r9}
    804c:	e8a103fc 	stmia	r1!, {r2, r3, r4, r5, r6, r7, r8, r9}
    8050:	e8b003fc 	ldm	r0!, {r2, r3, r4, r5, r6, r7, r8, r9}
    8054:	e8a103fc 	stmia	r1!, {r2, r3, r4, r5, r6, r7, r8, r9}
    8058:	e3a000d1 	mov	r0, #209	; 0xd1
    805c:	e121f000 	msr	CPSR_c, r0
    8060:	e3a0d90e 	mov	sp, #229376	; 0x38000
    8064:	e3a000d2 	mov	r0, #210	; 0xd2
    8068:	e121f000 	msr	CPSR_c, r0
    806c:	e3a0d701 	mov	sp, #262144	; 0x40000
    8070:	e3a000d3 	mov	r0, #211	; 0xd3
    8074:	e121f000 	msr	CPSR_c, r0
    8078:	e3a0d912 	mov	sp, #294912	; 0x48000
    807c:	eb00001d 	bl	80f8 <kmain>

00008080 <hang>:
    8080:	eafffffe 	b	8080 <hang>

00008084 <undefined>:
    8084:	eafffffe 	b	8084 <undefined>

00008088 <swi>:
    8088:	eafffffe 	b	8088 <swi>

0000808c <prefetch>:
    808c:	eafffffe 	b	808c <prefetch>

00008090 <data>:
    8090:	eafffffe 	b	8090 <data>

00008094 <unused>:
    8094:	eafffffe 	b	8094 <unused>

00008098 <fiq>:
    8098:	eafffffe 	b	8098 <fiq>

0000809c <PUT32>:
    809c:	e5801000 	str	r1, [r0]
    80a0:	e12fff1e 	bx	lr

000080a4 <PUT16>:
    80a4:	e1c010b0 	strh	r1, [r0]
    80a8:	e12fff1e 	bx	lr

000080ac <PUT8>:
    80ac:	e5c01000 	strb	r1, [r0]
    80b0:	e12fff1e 	bx	lr

000080b4 <GET32>:
    80b4:	e5900000 	ldr	r0, [r0]
    80b8:	e12fff1e 	bx	lr

000080bc <GETPC>:
    80bc:	e1a0000e 	mov	r0, lr
    80c0:	e12fff1e 	bx	lr

000080c4 <BRANCHTO>:
    80c4:	e12fff10 	bx	r0

000080c8 <dummy>:
    80c8:	e12fff1e 	bx	lr

000080cc <irq>:
    80cc:	eafffffe 	b	80cc <irq>

000080d0 <ping>:
    80d0:	e92d4008 	push	{r3, lr}
    80d4:	e59f0004 	ldr	r0, [pc, #4]	; 80e0 <ping+0x10>
    80d8:	eb0000ce 	bl	8418 <switch_to>
    80dc:	eafffffc 	b	80d4 <ping+0x4>
    80e0:	00008494 	muleq	r0, r4, r4

000080e4 <pong>:
    80e4:	e92d4008 	push	{r3, lr}
    80e8:	e59f0004 	ldr	r0, [pc, #4]	; 80f4 <pong+0x10>
    80ec:	eb0000c9 	bl	8418 <switch_to>
    80f0:	eafffffc 	b	80e8 <pong+0x4>
    80f4:	00008480 	andeq	r8, r0, r0, lsl #9

000080f8 <kmain>:
    80f8:	e92d4008 	push	{r3, lr}
    80fc:	eb000082 	bl	830c <init_hw>
    8100:	e59f0038 	ldr	r0, [pc, #56]	; 8140 <kmain+0x48>
    8104:	e59f1038 	ldr	r1, [pc, #56]	; 8144 <kmain+0x4c>
    8108:	e3a02c01 	mov	r2, #256	; 0x100
    810c:	eb0000ae 	bl	83cc <init_ctx>
    8110:	e59f0030 	ldr	r0, [pc, #48]	; 8148 <kmain+0x50>
    8114:	e59f1030 	ldr	r1, [pc, #48]	; 814c <kmain+0x54>
    8118:	e3a02c01 	mov	r2, #256	; 0x100
    811c:	eb0000aa 	bl	83cc <init_ctx>
    8120:	e59f3028 	ldr	r3, [pc, #40]	; 8150 <kmain+0x58>
    8124:	e59f2028 	ldr	r2, [pc, #40]	; 8154 <kmain+0x5c>
    8128:	e5832000 	str	r2, [r3]
    812c:	e59f000c 	ldr	r0, [pc, #12]	; 8140 <kmain+0x48>
    8130:	eb0000b8 	bl	8418 <switch_to>
    8134:	e3a03000 	mov	r3, #0
    8138:	e1a00003 	mov	r0, r3
    813c:	e8bd8008 	pop	{r3, pc}
    8140:	00008480 	andeq	r8, r0, r0, lsl #9
    8144:	000080d0 	ldrdeq	r8, [r0], -r0
    8148:	00008494 	muleq	r0, r4, r4
    814c:	000080e4 	andeq	r8, r0, r4, ror #1
    8150:	00008490 	muleq	r0, r0, r4
    8154:	00008488 	andeq	r8, r0, r8, lsl #9

00008158 <phyAlloc_alloc>:
    8158:	e92d0030 	push	{r4, r5}
    815c:	e24dd008 	sub	sp, sp, #8
    8160:	e58d0004 	str	r0, [sp, #4]
    8164:	e59f3094 	ldr	r3, [pc, #148]	; 8200 <phyAlloc_alloc+0xa8>
    8168:	e5934000 	ldr	r4, [r3]
    816c:	e59f508c 	ldr	r5, [pc, #140]	; 8200 <phyAlloc_alloc+0xa8>
    8170:	ea000001 	b	817c <phyAlloc_alloc+0x24>
    8174:	e1a05004 	mov	r5, r4
    8178:	e5944000 	ldr	r4, [r4]
    817c:	e3540000 	cmp	r4, #0
    8180:	0a000003 	beq	8194 <phyAlloc_alloc+0x3c>
    8184:	e5942004 	ldr	r2, [r4, #4]
    8188:	e59d3004 	ldr	r3, [sp, #4]
    818c:	e1520003 	cmp	r2, r3
    8190:	3afffff7 	bcc	8174 <phyAlloc_alloc+0x1c>
    8194:	e3540000 	cmp	r4, #0
    8198:	1a000011 	bne	81e4 <phyAlloc_alloc+0x8c>
    819c:	e59f3060 	ldr	r3, [pc, #96]	; 8204 <phyAlloc_alloc+0xac>
    81a0:	e5934000 	ldr	r4, [r3]
    81a4:	e59f3058 	ldr	r3, [pc, #88]	; 8204 <phyAlloc_alloc+0xac>
    81a8:	e5932000 	ldr	r2, [r3]
    81ac:	e59d3004 	ldr	r3, [sp, #4]
    81b0:	e2833003 	add	r3, r3, #3
    81b4:	e3c33003 	bic	r3, r3, #3
    81b8:	e0822003 	add	r2, r2, r3
    81bc:	e59f3040 	ldr	r3, [pc, #64]	; 8204 <phyAlloc_alloc+0xac>
    81c0:	e5832000 	str	r2, [r3]
    81c4:	e59f3038 	ldr	r3, [pc, #56]	; 8204 <phyAlloc_alloc+0xac>
    81c8:	e5932000 	ldr	r2, [r3]
    81cc:	e59f3034 	ldr	r3, [pc, #52]	; 8208 <phyAlloc_alloc+0xb0>
    81d0:	e5933000 	ldr	r3, [r3]
    81d4:	e1520003 	cmp	r2, r3
    81d8:	9a000003 	bls	81ec <phyAlloc_alloc+0x94>
    81dc:	e3a03000 	mov	r3, #0
    81e0:	ea000002 	b	81f0 <phyAlloc_alloc+0x98>
    81e4:	e5943000 	ldr	r3, [r4]
    81e8:	e5853000 	str	r3, [r5]
    81ec:	e1a03004 	mov	r3, r4
    81f0:	e1a00003 	mov	r0, r3
    81f4:	e28dd008 	add	sp, sp, #8
    81f8:	e8bd0030 	pop	{r4, r5}
    81fc:	e12fff1e 	bx	lr
    8200:	00008474 	andeq	r8, r0, r4, ror r4
    8204:	00008478 	andeq	r8, r0, r8, ror r4
    8208:	0000847c 	andeq	r8, r0, ip, ror r4

0000820c <phyAlloc_free>:
    820c:	e52d4004 	push	{r4}		; (str r4, [sp, #-4]!)
    8210:	e24dd00c 	sub	sp, sp, #12
    8214:	e58d0004 	str	r0, [sp, #4]
    8218:	e58d1000 	str	r1, [sp]
    821c:	e59d4004 	ldr	r4, [sp, #4]
    8220:	e59d3000 	ldr	r3, [sp]
    8224:	e2833003 	add	r3, r3, #3
    8228:	e3c33003 	bic	r3, r3, #3
    822c:	e5843004 	str	r3, [r4, #4]
    8230:	e59f3018 	ldr	r3, [pc, #24]	; 8250 <phyAlloc_free+0x44>
    8234:	e5933000 	ldr	r3, [r3]
    8238:	e5843000 	str	r3, [r4]
    823c:	e59f300c 	ldr	r3, [pc, #12]	; 8250 <phyAlloc_free+0x44>
    8240:	e5834000 	str	r4, [r3]
    8244:	e28dd00c 	add	sp, sp, #12
    8248:	e8bd0010 	pop	{r4}
    824c:	e12fff1e 	bx	lr
    8250:	00008474 	andeq	r8, r0, r4, ror r4

00008254 <phyAlloc_init>:
    8254:	e24dd008 	sub	sp, sp, #8
    8258:	e58d0004 	str	r0, [sp, #4]
    825c:	e58d1000 	str	r1, [sp]
    8260:	e59f3020 	ldr	r3, [pc, #32]	; 8288 <phyAlloc_init+0x34>
    8264:	e59d2004 	ldr	r2, [sp, #4]
    8268:	e5832000 	str	r2, [r3]
    826c:	e59d2004 	ldr	r2, [sp, #4]
    8270:	e59d3000 	ldr	r3, [sp]
    8274:	e0822003 	add	r2, r2, r3
    8278:	e59f300c 	ldr	r3, [pc, #12]	; 828c <phyAlloc_init+0x38>
    827c:	e5832000 	str	r2, [r3]
    8280:	e28dd008 	add	sp, sp, #8
    8284:	e12fff1e 	bx	lr
    8288:	00008478 	andeq	r8, r0, r8, ror r4
    828c:	0000847c 	andeq	r8, r0, ip, ror r4

00008290 <set_tick_and_enable_timer>:
    8290:	e52de004 	push	{lr}		; (str lr, [sp, #-4]!)
    8294:	e24dd00c 	sub	sp, sp, #12
    8298:	e59f0030 	ldr	r0, [pc, #48]	; 82d0 <set_tick_and_enable_timer+0x40>
    829c:	ebffff84 	bl	80b4 <GET32>
    82a0:	e58d0004 	str	r0, [sp, #4]
    82a4:	e59d3004 	ldr	r3, [sp, #4]
    82a8:	e2833702 	add	r3, r3, #524288	; 0x80000
    82ac:	e58d3004 	str	r3, [sp, #4]
    82b0:	e59f001c 	ldr	r0, [pc, #28]	; 82d4 <set_tick_and_enable_timer+0x44>
    82b4:	e59d1004 	ldr	r1, [sp, #4]
    82b8:	ebffff77 	bl	809c <PUT32>
    82bc:	e59f0014 	ldr	r0, [pc, #20]	; 82d8 <set_tick_and_enable_timer+0x48>
    82c0:	e3a01002 	mov	r1, #2
    82c4:	ebffff74 	bl	809c <PUT32>
    82c8:	e28dd00c 	add	sp, sp, #12
    82cc:	e8bd8000 	pop	{pc}
    82d0:	20003004 	andcs	r3, r0, r4
    82d4:	20003010 	andcs	r3, r0, r0, lsl r0
    82d8:	20003000 	andcs	r3, r0, r0

000082dc <led_off>:
    82dc:	e92d4008 	push	{r3, lr}
    82e0:	e59f0008 	ldr	r0, [pc, #8]	; 82f0 <led_off+0x14>
    82e4:	e3a01801 	mov	r1, #65536	; 0x10000
    82e8:	ebffff6b 	bl	809c <PUT32>
    82ec:	e8bd8008 	pop	{r3, pc}
    82f0:	2020001c 	eorcs	r0, r0, ip, lsl r0

000082f4 <led_on>:
    82f4:	e92d4008 	push	{r3, lr}
    82f8:	e59f0008 	ldr	r0, [pc, #8]	; 8308 <led_on+0x14>
    82fc:	e3a01801 	mov	r1, #65536	; 0x10000
    8300:	ebffff65 	bl	809c <PUT32>
    8304:	e8bd8008 	pop	{r3, pc}
    8308:	20200028 	eorcs	r0, r0, r8, lsr #32

0000830c <init_hw>:
    830c:	e52de004 	push	{lr}		; (str lr, [sp, #-4]!)
    8310:	e24dd00c 	sub	sp, sp, #12
    8314:	e59f0098 	ldr	r0, [pc, #152]	; 83b4 <init_hw+0xa8>
    8318:	ebffff65 	bl	80b4 <GET32>
    831c:	e58d0004 	str	r0, [sp, #4]
    8320:	e59d3004 	ldr	r3, [sp, #4]
    8324:	e3c33707 	bic	r3, r3, #1835008	; 0x1c0000
    8328:	e58d3004 	str	r3, [sp, #4]
    832c:	e59d3004 	ldr	r3, [sp, #4]
    8330:	e3833701 	orr	r3, r3, #262144	; 0x40000
    8334:	e58d3004 	str	r3, [sp, #4]
    8338:	e59f0074 	ldr	r0, [pc, #116]	; 83b4 <init_hw+0xa8>
    833c:	e59d1004 	ldr	r1, [sp, #4]
    8340:	ebffff55 	bl	809c <PUT32>
    8344:	e59f006c 	ldr	r0, [pc, #108]	; 83b8 <init_hw+0xac>
    8348:	e3a01801 	mov	r1, #65536	; 0x10000
    834c:	ebffff52 	bl	809c <PUT32>
    8350:	e59f0064 	ldr	r0, [pc, #100]	; 83bc <init_hw+0xb0>
    8354:	ebffff56 	bl	80b4 <GET32>
    8358:	e58d0000 	str	r0, [sp]
    835c:	e59d3000 	ldr	r3, [sp]
    8360:	e2833702 	add	r3, r3, #524288	; 0x80000
    8364:	e58d3000 	str	r3, [sp]
    8368:	e59f0050 	ldr	r0, [pc, #80]	; 83c0 <init_hw+0xb4>
    836c:	e59d1000 	ldr	r1, [sp]
    8370:	ebffff49 	bl	809c <PUT32>
    8374:	e59f0048 	ldr	r0, [pc, #72]	; 83c4 <init_hw+0xb8>
    8378:	e3a01002 	mov	r1, #2
    837c:	ebffff46 	bl	809c <PUT32>
    8380:	e59f0040 	ldr	r0, [pc, #64]	; 83c8 <init_hw+0xbc>
    8384:	e3a01002 	mov	r1, #2
    8388:	ebffff43 	bl	809c <PUT32>
    838c:	e92d0001 	push	{r0}
    8390:	e10f0000 	mrs	r0, CPSR
    8394:	e3800080 	orr	r0, r0, #128	; 0x80
    8398:	e121f000 	msr	CPSR_c, r0
    839c:	e8bd0001 	pop	{r0}
    83a0:	e3a00805 	mov	r0, #327680	; 0x50000
    83a4:	e3a01a32 	mov	r1, #204800	; 0x32000
    83a8:	ebffffa9 	bl	8254 <phyAlloc_init>
    83ac:	e28dd00c 	add	sp, sp, #12
    83b0:	e8bd8000 	pop	{pc}
    83b4:	20200004 	eorcs	r0, r0, r4
    83b8:	2020001c 	eorcs	r0, r0, ip, lsl r0
    83bc:	20003004 	andcs	r3, r0, r4
    83c0:	20003010 	andcs	r3, r0, r0, lsl r0
    83c4:	20003000 	andcs	r3, r0, r0
    83c8:	2000b210 	andcs	fp, r0, r0, lsl r2

000083cc <init_ctx>:
    83cc:	e52de004 	push	{lr}		; (str lr, [sp, #-4]!)
    83d0:	e24dd014 	sub	sp, sp, #20
    83d4:	e58d000c 	str	r0, [sp, #12]
    83d8:	e58d1008 	str	r1, [sp, #8]
    83dc:	e58d2004 	str	r2, [sp, #4]
    83e0:	e59d300c 	ldr	r3, [sp, #12]
    83e4:	e59d2008 	ldr	r2, [sp, #8]
    83e8:	e5832000 	str	r2, [r3]
    83ec:	e59d0004 	ldr	r0, [sp, #4]
    83f0:	ebffff58 	bl	8158 <phyAlloc_alloc>
    83f4:	e1a02000 	mov	r2, r0
    83f8:	e59d3004 	ldr	r3, [sp, #4]
    83fc:	e1a03123 	lsr	r3, r3, #2
    8400:	e1a03103 	lsl	r3, r3, #2
    8404:	e0822003 	add	r2, r2, r3
    8408:	e59d300c 	ldr	r3, [sp, #12]
    840c:	e5832004 	str	r2, [r3, #4]
    8410:	e28dd014 	add	sp, sp, #20
    8414:	e8bd8000 	pop	{pc}

00008418 <switch_to>:
    8418:	e1a02000 	mov	r2, r0
    841c:	e92d1fff 	push	{r0, r1, r2, r3, r4, r5, r6, r7, r8, r9, sl, fp, ip}
    8420:	e59f3048 	ldr	r3, [pc, #72]	; 8470 <switch_to+0x58>
    8424:	e5933000 	ldr	r3, [r3]
    8428:	e1a0100d 	mov	r1, sp
    842c:	e5831004 	str	r1, [r3, #4]
    8430:	e59f3038 	ldr	r3, [pc, #56]	; 8470 <switch_to+0x58>
    8434:	e5933000 	ldr	r3, [r3]
    8438:	e1a0100e 	mov	r1, lr
    843c:	e5831000 	str	r1, [r3]
    8440:	e59f3028 	ldr	r3, [pc, #40]	; 8470 <switch_to+0x58>
    8444:	e5832000 	str	r2, [r3]
    8448:	e59f3020 	ldr	r3, [pc, #32]	; 8470 <switch_to+0x58>
    844c:	e5933000 	ldr	r3, [r3]
    8450:	e5933004 	ldr	r3, [r3, #4]
    8454:	e1a0d003 	mov	sp, r3
    8458:	e59f3010 	ldr	r3, [pc, #16]	; 8470 <switch_to+0x58>
    845c:	e5933000 	ldr	r3, [r3]
    8460:	e5933000 	ldr	r3, [r3]
    8464:	e1a0e003 	mov	lr, r3
    8468:	e8bd1fff 	pop	{r0, r1, r2, r3, r4, r5, r6, r7, r8, r9, sl, fp, ip}
    846c:	e12fff1e 	bx	lr
    8470:	00008490 	muleq	r0, r0, r4

Disassembly of section .bss:

00008474 <freelist>:
    8474:	00000000 	andeq	r0, r0, r0

00008478 <top>:
    8478:	00000000 	andeq	r0, r0, r0

0000847c <heap_limit>:
    847c:	00000000 	andeq	r0, r0, r0

00008480 <ctx_ping>:
	...

00008488 <ctx_init>:
	...

00008490 <current_ctx>:
    8490:	00000000 	andeq	r0, r0, r0

00008494 <ctx_pong>:
	...

Disassembly of section .ARM.attributes:

00000000 <.ARM.attributes>:
   0:	00003141 	andeq	r3, r0, r1, asr #2
   4:	61656100 	cmnvs	r5, r0, lsl #2
   8:	01006962 	tsteq	r0, r2, ror #18
   c:	00000027 	andeq	r0, r0, r7, lsr #32
  10:	005a3605 	subseq	r3, sl, r5, lsl #12
  14:	01080706 	tsteq	r8, r6, lsl #14
  18:	020a0109 	andeq	r0, sl, #1073741826	; 0x40000002
  1c:	01140412 	tsteq	r4, r2, lsl r4
  20:	03170115 	tsteq	r7, #1073741829	; 0x40000005
  24:	011a0118 	tsteq	sl, r8, lsl r1
  28:	011c031b 	tsteq	ip, fp, lsl r3
  2c:	012c0122 	teqeq	ip, r2, lsr #2
  30:	Address 0x0000000000000030 is out of bounds.


Disassembly of section .comment:

00000000 <.comment>:
   0:	3a434347 	bcc	10d0d24 <__bss_end+0x10c8888>
   4:	4e472820 	cdpmi	8, 4, cr2, cr7, cr0, {1}
   8:	34202955 	strtcc	r2, [r0], #-2389	; 0x955
   c:	312e372e 	teqcc	lr, lr, lsr #14
	...

Disassembly of section .debug_line:

00000000 <.debug_line>:
   0:	00000061 	andeq	r0, r0, r1, rrx
   4:	00200002 	eoreq	r0, r0, r2
   8:	01020000 	mrseq	r0, (UNDEF: 2)
   c:	000d0efb 	strdeq	r0, [sp], -fp
  10:	01010101 	tsteq	r1, r1, lsl #2
  14:	01000000 	mrseq	r0, (UNDEF: 0)
  18:	00010000 	andeq	r0, r1, r0
  1c:	74636576 	strbtvc	r6, [r3], #-1398	; 0x576
  20:	2e73726f 	cdpcs	2, 7, cr7, cr3, cr15, {3}
  24:	00000073 	andeq	r0, r0, r3, ror r0
  28:	05000000 	streq	r0, [r0, #-0]
  2c:	00800002 	addeq	r0, r0, r2
  30:	2f2f1900 	svccs	0x002f1900
  34:	2f2f2f2f 	svccs	0x002f2f2f
  38:	080b032f 	stmdaeq	fp, {r0, r1, r2, r3, r5, r8, r9}
  3c:	2f2f2f20 	svccs	0x002f2f20
  40:	2f322f2f 	svccs	0x00322f2f
  44:	2f2f322f 	svccs	0x002f322f
  48:	302f2f31 	eorcc	r2, pc, r1, lsr pc	; <UNPREDICTABLE>
  4c:	2f2f2f30 	svccs	0x002f2f30
  50:	322f2f2f 	eorcc	r2, pc, #188	; 0xbc
  54:	322f322f 	eorcc	r3, pc, #-268435454	; 0xf0000002
  58:	322f322f 	eorcc	r3, pc, #-268435454	; 0xf0000002
  5c:	3032322f 	eorscc	r3, r2, pc, lsr #4
  60:	01000202 	tsteq	r0, r2, lsl #4
  64:	00005a01 	andeq	r5, r0, r1, lsl #20
  68:	2a000200 	bcs	870 <_start-0x7790>
  6c:	02000000 	andeq	r0, r0, #0
  70:	0d0efb01 	vstreq	d15, [lr, #-4]
  74:	01010100 	mrseq	r0, (UNDEF: 17)
  78:	00000001 	andeq	r0, r0, r1
  7c:	01000001 	tsteq	r0, r1
  80:	72656b00 	rsbvc	r6, r5, #0
  84:	2e6c656e 	cdpcs	5, 6, cr6, cr12, cr14, {3}
  88:	00000063 	andeq	r0, r0, r3, rrx
  8c:	68637300 	stmdavs	r3!, {r8, r9, ip, sp, lr}^
  90:	682e6465 	stmdavs	lr!, {r0, r2, r5, r6, sl, sp, lr}
  94:	00000000 	andeq	r0, r0, r0
  98:	02050000 	andeq	r0, r5, #0
  9c:	000080d0 	ldrdeq	r8, [r0], -r0
  a0:	04020019 	streq	r0, [r2], #-25
  a4:	02003001 	andeq	r3, r0, #1
  a8:	4d4b0104 	stfmie	f0, [fp, #-16]
  ac:	01040200 	mrseq	r0, R12_usr
  b0:	04020030 	streq	r0, [r2], #-48	; 0x30
  b4:	2f4d4b01 	svccs	0x004d4b01
  b8:	6783832f 	strvs	r8, [r3, pc, lsr #6]
  bc:	1002304c 	andne	r3, r2, ip, asr #32
  c0:	59010100 	stmdbpl	r1, {r8}
  c4:	02000000 	andeq	r0, r0, #0
  c8:	00002100 	andeq	r2, r0, r0, lsl #2
  cc:	fb010200 	blx	408d6 <__bss_end+0x3843a>
  d0:	01000d0e 	tsteq	r0, lr, lsl #26
  d4:	00010101 	andeq	r0, r1, r1, lsl #2
  d8:	00010000 	andeq	r0, r1, r0
  dc:	70000100 	andvc	r0, r0, r0, lsl #2
  e0:	6c417968 	mcrrvs	9, 6, r7, r1, cr8
  e4:	2e636f6c 	cdpcs	15, 6, cr6, cr3, cr12, {3}
  e8:	00000063 	andeq	r0, r0, r3, rrx
  ec:	05000000 	streq	r0, [r0, #-0]
  f0:	00815802 	addeq	r5, r1, r2, lsl #16
  f4:	010c0300 	mrseq	r0, LR_mon
  f8:	2f2f4c67 	svccs	0x002f4c67
  fc:	0402002f 	streq	r0, [r2], #-47	; 0x2f
 100:	02002c01 	andeq	r2, r0, #256	; 0x100
 104:	4a060204 	bmi	18091c <__bss_end+0x178480>
 108:	4b4b8606 	blmi	12e1928 <__bss_end+0x12d948c>
 10c:	4c4cbbf4 	mcrrmi	11, 15, fp, ip, cr4
 110:	3083da2f 	addcc	sp, r3, pc, lsr #20
 114:	864b6783 	strbhi	r6, [fp], -r3, lsl #15
 118:	029f6767 	addseq	r6, pc, #27000832	; 0x19c0000
 11c:	01010008 	tsteq	r1, r8
 120:	0000004b 	andeq	r0, r0, fp, asr #32
 124:	001b0002 	andseq	r0, fp, r2
 128:	01020000 	mrseq	r0, (UNDEF: 2)
 12c:	000d0efb 	strdeq	r0, [sp], -fp
 130:	01010101 	tsteq	r1, r1, lsl #2
 134:	01000000 	mrseq	r0, (UNDEF: 0)
 138:	00010000 	andeq	r0, r1, r0
 13c:	632e7768 	teqvs	lr, #27262976	; 0x1a00000
 140:	00000000 	andeq	r0, r0, r0
 144:	02050000 	andeq	r0, r5, #0
 148:	00008290 	muleq	r0, r0, r2
 14c:	4b011c03 	blmi	47160 <__bss_end+0x3ecc4>
 150:	67686767 	strbvs	r6, [r8, -r7, ror #14]!
 154:	2f9e0903 	svccs	0x009e0903
 158:	672f4e67 	strvs	r4, [pc, -r7, ror #28]!
 15c:	67674f51 			; <UNDEFINED> instruction: 0x67674f51
 160:	67696967 	strbvs	r6, [r9, -r7, ror #18]!
 164:	68696a67 	stmdavs	r9!, {r0, r1, r2, r5, r6, r9, fp, sp, lr}^
 168:	100267a0 	andne	r6, r2, r0, lsr #15
 16c:	49010100 	stmdbmi	r1, {r8}
 170:	02000000 	andeq	r0, r0, #0
 174:	00002900 	andeq	r2, r0, r0, lsl #18
 178:	fb010200 	blx	40982 <__bss_end+0x384e6>
 17c:	01000d0e 	tsteq	r0, lr, lsl #26
 180:	00010101 	andeq	r0, r1, r1, lsl #2
 184:	00010000 	andeq	r0, r1, r0
 188:	73000100 	movwvc	r0, #256	; 0x100
 18c:	64656863 	strbtvs	r6, [r5], #-2147	; 0x863
 190:	0000632e 	andeq	r6, r0, lr, lsr #6
 194:	63730000 	cmnvs	r3, #0
 198:	2e646568 	cdpcs	5, 6, cr6, cr4, cr8, {3}
 19c:	00000068 	andeq	r0, r0, r8, rrx
 1a0:	05000000 	streq	r0, [r0, #-0]
 1a4:	0083cc02 	addeq	ip, r3, r2, lsl #24
 1a8:	679f1600 	ldrvs	r1, [pc, r0, lsl #12]
 1ac:	314c2108 	cmpcc	ip, r8, lsl #2
 1b0:	4d86832f 	stcmi	3, cr8, [r6, #188]	; 0xbc
 1b4:	022f8383 	eoreq	r8, pc, #201326594	; 0xc000002
 1b8:	01010004 	tsteq	r1, r4

Disassembly of section .debug_info:

00000000 <.debug_info>:
   0:	00000049 	andeq	r0, r0, r9, asr #32
   4:	00000002 	andeq	r0, r0, r2
   8:	01040000 	mrseq	r0, (UNDEF: 4)
   c:	00000000 	andeq	r0, r0, r0
  10:	00008000 	andeq	r8, r0, r0
  14:	000080d0 	ldrdeq	r8, [r0], -r0
  18:	74636576 	strbtvc	r6, [r3], #-1398	; 0x576
  1c:	2e73726f 	cdpcs	2, 7, cr7, cr3, cr15, {3}
  20:	682f0073 	stmdavs	pc!, {r0, r1, r4, r5, r6}	; <UNPREDICTABLE>
  24:	2f656d6f 	svccs	0x00656d6f
  28:	616c6573 	smcvs	50771	; 0xc653
  2c:	756f616c 	strbvc	r6, [pc, #-364]!	; fffffec8 <__bss_end+0xffff7a2c>
  30:	6f2f7469 	svcvs	0x002f7469
  34:	65697073 	strbvs	r7, [r9, #-115]!	; 0x73
  38:	6174732d 	cmnvs	r4, sp, lsr #6
  3c:	47007472 	smlsdxmi	r0, r2, r4, r7
  40:	4120554e 	teqmi	r0, lr, asr #10
  44:	2e322053 	mrccs	0, 1, r2, cr2, cr3, {2}
  48:	01003232 	tsteq	r0, r2, lsr r2
  4c:	0000e880 	andeq	lr, r0, r0, lsl #17
  50:	14000200 	strne	r0, [r0], #-512	; 0x200
  54:	04000000 	streq	r0, [r0], #-0
  58:	00000901 	andeq	r0, r0, r1, lsl #18
  5c:	00150100 	andseq	r0, r5, r0, lsl #2
  60:	003f0000 	eorseq	r0, pc, r0
  64:	80d00000 	sbcshi	r0, r0, r0
  68:	81580000 	cmphi	r8, r0
  6c:	00650000 	rsbeq	r0, r5, r0
  70:	39020000 	stmdbcc	r2, {}	; <UNPREDICTABLE>
  74:	08000000 	stmdaeq	r0, {}	; <UNPREDICTABLE>
  78:	004c1002 	subeq	r1, ip, r2
  7c:	70030000 	andvc	r0, r3, r0
  80:	11020063 	tstne	r2, r3, rrx
  84:	0000004c 	andeq	r0, r0, ip, asr #32
  88:	03002302 	movweq	r2, #770	; 0x302
  8c:	02007073 	andeq	r7, r0, #115	; 0x73
  90:	00004c12 	andeq	r4, r0, r2, lsl ip
  94:	04230200 	strteq	r0, [r3], #-512	; 0x200
  98:	52040400 	andpl	r0, r4, #0
  9c:	05000000 	streq	r0, [r0, #-0]
  a0:	6e690504 	cdpvs	5, 6, cr0, cr9, cr4, {0}
  a4:	01060074 	tsteq	r6, r4, ror r0
  a8:	00000004 	andeq	r0, r0, r4
  ac:	80d00701 	sbcshi	r0, r0, r1, lsl #14
  b0:	80e40000 	rschi	r0, r4, r0
  b4:	00000000 	andeq	r0, r0, r0
  b8:	06010000 	streq	r0, [r1], -r0
  bc:	00006001 	andeq	r6, r0, r1
  c0:	e40d0100 	str	r0, [sp], #-256	; 0x100
  c4:	f8000080 			; <UNDEFINED> instruction: 0xf8000080
  c8:	20000080 	andcs	r0, r0, r0, lsl #1
  cc:	01000000 	mrseq	r0, (UNDEF: 0)
  d0:	00330107 	eorseq	r0, r3, r7, lsl #2
  d4:	13010000 	movwne	r0, #4096	; 0x1000
  d8:	00005201 	andeq	r5, r0, r1, lsl #4
  dc:	0080f800 	addeq	pc, r0, r0, lsl #16
  e0:	00815800 	addeq	r5, r1, r0, lsl #16
  e4:	00004000 	andeq	r4, r0, r0
  e8:	27080100 	strcs	r0, [r8, -r0, lsl #2]
  ec:	02000000 	andeq	r0, r0, #0
  f0:	0000af15 	andeq	sl, r0, r5, lsl pc
  f4:	03050100 	movweq	r0, #20736	; 0x5100
  f8:	00008490 	muleq	r0, r0, r4
  fc:	00250404 	eoreq	r0, r5, r4, lsl #8
 100:	00080000 	andeq	r0, r8, r0
 104:	01000000 	mrseq	r0, (UNDEF: 0)
 108:	00002504 	andeq	r2, r0, r4, lsl #10
 10c:	03050100 	movweq	r0, #20736	; 0x5100
 110:	00008480 	andeq	r8, r0, r0, lsl #9
 114:	00005c08 	andeq	r5, r0, r8, lsl #24
 118:	25050100 	strcs	r0, [r5, #-256]	; 0x100
 11c:	01000000 	mrseq	r0, (UNDEF: 0)
 120:	84940305 	ldrhi	r0, [r4], #773	; 0x305
 124:	1e080000 	cdpne	0, 0, cr0, cr8, cr0, {0}
 128:	01000000 	mrseq	r0, (UNDEF: 0)
 12c:	00002506 	andeq	r2, r0, r6, lsl #10
 130:	03050100 	movweq	r0, #20736	; 0x5100
 134:	00008488 	andeq	r8, r0, r8, lsl #9
 138:	00015e00 	andeq	r5, r1, r0, lsl #28
 13c:	9b000200 	blls	944 <_start-0x76bc>
 140:	04000000 	streq	r0, [r0], #-0
 144:	00000901 	andeq	r0, r0, r1, lsl #18
 148:	00650100 	rsbeq	r0, r5, r0, lsl #2
 14c:	003f0000 	eorseq	r0, pc, r0
 150:	81580000 	cmphi	r8, r0
 154:	82900000 	addshi	r0, r0, #0
 158:	00c30000 	sbceq	r0, r3, r0
 15c:	66020000 	strvs	r0, [r2], -r0
 160:	0108006c 	tsteq	r8, ip, rrx
 164:	00004d03 	andeq	r4, r0, r3, lsl #26
 168:	00a20300 	adceq	r0, r2, r0, lsl #6
 16c:	04010000 	streq	r0, [r1], #-0
 170:	0000004d 	andeq	r0, r0, sp, asr #32
 174:	03002302 	movweq	r2, #770	; 0x302
 178:	00000132 	andeq	r0, r0, r2, lsr r1
 17c:	00530501 	subseq	r0, r3, r1, lsl #10
 180:	23020000 	movwcs	r0, #8192	; 0x2000
 184:	04040004 	streq	r0, [r4], #-4
 188:	00000025 	andeq	r0, r0, r5, lsr #32
 18c:	08070405 	stmdaeq	r7, {r0, r2, sl}
 190:	06000001 	streq	r0, [r0], -r1
 194:	0000a701 	andeq	sl, r0, r1, lsl #14
 198:	010c0100 	mrseq	r0, (UNDEF: 28)
 19c:	0000009f 	muleq	r0, pc, r0	; <UNPREDICTABLE>
 1a0:	00008158 	andeq	r8, r0, r8, asr r1
 1a4:	0000820c 	andeq	r8, r0, ip, lsl #4
 1a8:	00000060 	andeq	r0, r0, r0, rrx
 1ac:	00009f01 	andeq	r9, r0, r1, lsl #30
 1b0:	01320700 	teqeq	r2, r0, lsl #14
 1b4:	0c010000 	stceq	0, cr0, [r1], {-0}
 1b8:	00000053 	andeq	r0, r0, r3, asr r0
 1bc:	08749102 	ldmdaeq	r4!, {r1, r8, ip, pc}^
 1c0:	0e010066 	cdpeq	0, 0, cr0, cr1, cr6, {3}
 1c4:	0000004d 	andeq	r0, r0, sp, asr #32
 1c8:	70095401 	andvc	r5, r9, r1, lsl #8
 1cc:	01000000 	mrseq	r0, (UNDEF: 0)
 1d0:	0000a10e 	andeq	sl, r0, lr, lsl #2
 1d4:	00550100 	subseq	r0, r5, r0, lsl #2
 1d8:	0404040a 	streq	r0, [r4], #-1034	; 0x40a
 1dc:	0000004d 	andeq	r0, r0, sp, asr #32
 1e0:	007e010b 	rsbseq	r0, lr, fp, lsl #2
 1e4:	22010000 	andcs	r0, r1, #0
 1e8:	00820c01 	addeq	r0, r2, r1, lsl #24
 1ec:	00825400 	addeq	r5, r2, r0, lsl #8
 1f0:	00008c00 	andeq	r8, r0, r0, lsl #24
 1f4:	00e90100 	rsceq	r0, r9, r0, lsl #2
 1f8:	700c0000 	andvc	r0, ip, r0
 1fc:	01007274 	tsteq	r0, r4, ror r2
 200:	00009f22 	andeq	r9, r0, r2, lsr #30
 204:	74910200 	ldrvc	r0, [r1], #512	; 0x200
 208:	00013207 	andeq	r3, r1, r7, lsl #4
 20c:	53220100 	teqpl	r2, #0
 210:	02000000 	andeq	r0, r0, #0
 214:	66087091 			; <UNDEFINED> instruction: 0x66087091
 218:	4d240100 	stfmis	f0, [r4, #-0]
 21c:	01000000 	mrseq	r0, (UNDEF: 0)
 220:	010b0054 	qaddeq	r0, r4, fp
 224:	000000b6 	strheq	r0, [r0], -r6
 228:	54012c01 	strpl	r2, [r1], #-3073	; 0xc01
 22c:	90000082 	andls	r0, r0, r2, lsl #1
 230:	b8000082 	stmdalt	r0, {r1, r7}
 234:	01000000 	mrseq	r0, (UNDEF: 0)
 238:	00000120 	andeq	r0, r0, r0, lsr #2
 23c:	00009707 	andeq	r9, r0, r7, lsl #14
 240:	202c0100 	eorcs	r0, ip, r0, lsl #2
 244:	02000001 	andeq	r0, r0, #1
 248:	c4077c91 	strgt	r7, [r7], #-3217	; 0xc91
 24c:	01000000 	mrseq	r0, (UNDEF: 0)
 250:	0000532c 	andeq	r5, r0, ip, lsr #6
 254:	78910200 	ldmvc	r1, {r9}
 258:	26040400 	strcs	r0, [r4], -r0, lsl #8
 25c:	05000001 	streq	r0, [r0, #-1]
 260:	00d70801 	sbcseq	r0, r7, r1, lsl #16
 264:	74080000 	strvc	r0, [r8], #-0
 268:	0100706f 	tsteq	r0, pc, rrx
 26c:	00012008 	andeq	r2, r1, r8
 270:	78030500 	stmdavc	r3, {r8, sl}
 274:	09000084 	stmdbeq	r0, {r2, r7}
 278:	0000008c 	andeq	r0, r0, ip, lsl #1
 27c:	01200901 	teqeq	r0, r1, lsl #18
 280:	03050000 	movweq	r0, #20480	; 0x5000
 284:	0000847c 	andeq	r8, r0, ip, ror r4
 288:	0000750d 	andeq	r7, r0, sp, lsl #10
 28c:	4d060100 	stfmis	f0, [r6, #-0]
 290:	01000000 	mrseq	r0, (UNDEF: 0)
 294:	84740305 	ldrbthi	r0, [r4], #-773	; 0x305
 298:	b8000000 	stmdalt	r0, {}	; <UNPREDICTABLE>
 29c:	02000000 	andeq	r0, r0, #0
 2a0:	00016b00 	andeq	r6, r1, r0, lsl #22
 2a4:	09010400 	stmdbeq	r1, {sl}
 2a8:	01000000 	mrseq	r0, (UNDEF: 0)
 2ac:	000000dc 	ldrdeq	r0, [r0], -ip
 2b0:	0000003f 	andeq	r0, r0, pc, lsr r0
 2b4:	00008290 	muleq	r0, r0, r2
 2b8:	000083cc 	andeq	r8, r0, ip, asr #7
 2bc:	00000120 	andeq	r0, r0, r0, lsr #2
 2c0:	02070202 	andeq	r0, r7, #536870912	; 0x20000000
 2c4:	02000001 	andeq	r0, r0, #1
 2c8:	01080704 	tsteq	r8, r4, lsl #14
 2cc:	01020000 	mrseq	r0, (UNDEF: 2)
 2d0:	0000ce08 	andeq	ip, r0, r8, lsl #28
 2d4:	e8010300 	stmda	r1, {r8, r9}
 2d8:	01000000 	mrseq	r0, (UNDEF: 0)
 2dc:	0082901c 	addeq	r9, r2, ip, lsl r0
 2e0:	0082dc00 	addeq	sp, r2, r0, lsl #24
 2e4:	0000d800 	andeq	sp, r0, r0, lsl #16
 2e8:	00610100 	rsbeq	r0, r1, r0, lsl #2
 2ec:	72040000 	andvc	r0, r4, #0
 2f0:	1e010078 	mcrne	0, 0, r0, cr1, cr8, {3}
 2f4:	0000002c 	andeq	r0, r0, ip, lsr #32
 2f8:	00749102 	rsbseq	r9, r4, r2, lsl #2
 2fc:	011d0105 	tsteq	sp, r5, lsl #2
 300:	2b010000 	blcs	40308 <__bss_end+0x37e6c>
 304:	000082dc 	ldrdeq	r8, [r0], -ip
 308:	000082f4 	strdeq	r8, [r0], -r4
 30c:	00000104 	andeq	r0, r0, r4, lsl #2
 310:	e1010501 	tst	r1, r1, lsl #10
 314:	01000000 	mrseq	r0, (UNDEF: 0)
 318:	0082f431 	addeq	pc, r2, r1, lsr r4	; <UNPREDICTABLE>
 31c:	00830c00 	addeq	r0, r3, r0, lsl #24
 320:	00012400 	andeq	r2, r1, r0, lsl #8
 324:	01060100 	mrseq	r0, (UNDEF: 22)
 328:	00000115 	andeq	r0, r0, r5, lsl r1
 32c:	830c3a01 	movwhi	r3, #51713	; 0xca01
 330:	83cc0000 	bichi	r0, ip, #0
 334:	01440000 	mrseq	r0, (UNDEF: 68)
 338:	04010000 	streq	r0, [r1], #-0
 33c:	01006172 	tsteq	r0, r2, ror r1
 340:	00002c3c 	andeq	r2, r0, ip, lsr ip
 344:	74910200 	ldrvc	r0, [r1], #512	; 0x200
 348:	00787204 	rsbseq	r7, r8, r4, lsl #4
 34c:	002c3d01 	eoreq	r3, ip, r1, lsl #26
 350:	91020000 	mrsls	r0, (UNDEF: 2)
 354:	f2000070 	vqadd.s8	q0, q0, q8
 358:	02000000 	andeq	r0, r0, #0
 35c:	0001dd00 	andeq	sp, r1, r0, lsl #26
 360:	09010400 	stmdbeq	r1, {sl}
 364:	01000000 	mrseq	r0, (UNDEF: 0)
 368:	00000137 	andeq	r0, r0, r7, lsr r1
 36c:	0000003f 	andeq	r0, r0, pc, lsr r0
 370:	000083cc 	andeq	r8, r0, ip, asr #7
 374:	00008474 	andeq	r8, r0, r4, ror r4
 378:	0000016f 	andeq	r0, r0, pc, ror #2
 37c:	00012502 	andeq	r2, r1, r2, lsl #10
 380:	300e0200 	andcc	r0, lr, r0, lsl #4
 384:	03000000 	movweq	r0, #0
 388:	00003604 	andeq	r3, r0, r4, lsl #12
 38c:	05010400 	streq	r0, [r1, #-1024]	; 0x400
 390:	00000039 	andeq	r0, r0, r9, lsr r0
 394:	5f100208 	svcpl	0x00100208
 398:	06000000 	streq	r0, [r0], -r0
 39c:	02006370 	andeq	r6, r0, #-1073741823	; 0xc0000001
 3a0:	00005f11 	andeq	r5, r0, r1, lsl pc
 3a4:	00230200 	eoreq	r0, r3, r0, lsl #4
 3a8:	00707306 	rsbseq	r7, r0, r6, lsl #6
 3ac:	005f1202 	subseq	r1, pc, r2, lsl #4
 3b0:	23020000 	movwcs	r0, #8192	; 0x2000
 3b4:	04030004 	streq	r0, [r3], #-4
 3b8:	00000065 	andeq	r0, r0, r5, rrx
 3bc:	69050407 	stmdbvs	r5, {r0, r1, r2, sl}
 3c0:	0800746e 	stmdaeq	r0, {r1, r2, r3, r5, r6, sl, ip, sp, lr}
 3c4:	00014901 	andeq	r4, r1, r1, lsl #18
 3c8:	01050100 	mrseq	r0, (UNDEF: 21)
 3cc:	000083cc 	andeq	r8, r0, ip, asr #7
 3d0:	00008418 	andeq	r8, r0, r8, lsl r4
 3d4:	00000170 	andeq	r0, r0, r0, ror r1
 3d8:	0000af01 	andeq	sl, r0, r1, lsl #30
 3dc:	74630900 	strbtvc	r0, [r3], #-2304	; 0x900
 3e0:	05010078 	streq	r0, [r1, #-120]	; 0x78
 3e4:	000000af 	andeq	r0, r0, pc, lsr #1
 3e8:	09749102 	ldmdbeq	r4!, {r1, r8, ip, pc}^
 3ec:	05010066 	streq	r0, [r1, #-102]	; 0x66
 3f0:	00000025 	andeq	r0, r0, r5, lsr #32
 3f4:	0a709102 	beq	1c24804 <__bss_end+0x1c1c368>
 3f8:	0000012c 	andeq	r0, r0, ip, lsr #2
 3fc:	00b50501 	adcseq	r0, r5, r1, lsl #10
 400:	91020000 	mrsls	r0, (UNDEF: 2)
 404:	0403006c 	streq	r0, [r3], #-108	; 0x6c
 408:	00000038 	andeq	r0, r0, r8, lsr r0
 40c:	0807040b 	stmdaeq	r7, {r0, r1, r3, sl}
 410:	0c000001 	stceq	0, cr0, [r0], {1}
 414:	00013f01 	andeq	r3, r1, r1, lsl #30
 418:	010a0100 	mrseq	r0, (UNDEF: 26)
 41c:	00008418 	andeq	r8, r0, r8, lsl r4
 420:	00008474 	andeq	r8, r0, r4, ror r4
 424:	01007d02 	tsteq	r0, r2, lsl #26
 428:	000000e3 	andeq	r0, r0, r3, ror #1
 42c:	78746309 	ldmdavc	r4!, {r0, r3, r8, r9, sp, lr}^
 430:	af0a0100 	svcge	0x000a0100
 434:	01000000 	mrseq	r0, (UNDEF: 0)
 438:	270d0052 	smlsdcs	sp, r2, r0, r0
 43c:	02000000 	andeq	r0, r0, #0
 440:	0000af15 	andeq	sl, r0, r5, lsl pc
 444:	03050100 	movweq	r0, #20736	; 0x5100
 448:	00008490 	muleq	r0, r0, r4
	...

Disassembly of section .debug_abbrev:

00000000 <.debug_abbrev>:
   0:	10001101 	andne	r1, r0, r1, lsl #2
   4:	12011106 	andne	r1, r1, #-2147483647	; 0x80000001
   8:	1b080301 	blne	200c14 <__bss_end+0x1f8778>
   c:	13082508 	movwne	r2, #34056	; 0x8508
  10:	00000005 	andeq	r0, r0, r5
  14:	25011101 	strcs	r1, [r1, #-257]	; 0x101
  18:	030b130e 	movweq	r1, #45838	; 0xb30e
  1c:	110e1b0e 	tstne	lr, lr, lsl #22
  20:	10011201 	andne	r1, r1, r1, lsl #4
  24:	02000006 	andeq	r0, r0, #6
  28:	0e030113 	mcreq	1, 0, r0, cr3, cr3, {0}
  2c:	0b3a0b0b 	bleq	e82c60 <__bss_end+0xe7a7c4>
  30:	13010b3b 	movwne	r0, #6971	; 0x1b3b
  34:	0d030000 	stceq	0, cr0, [r3, #-0]
  38:	3a080300 	bcc	200c40 <__bss_end+0x1f87a4>
  3c:	490b3b0b 	stmdbmi	fp, {r0, r1, r3, r8, r9, fp, ip, sp}
  40:	000a3813 	andeq	r3, sl, r3, lsl r8
  44:	000f0400 	andeq	r0, pc, r0, lsl #8
  48:	13490b0b 	movtne	r0, #39691	; 0x9b0b
  4c:	24050000 	strcs	r0, [r5], #-0
  50:	3e0b0b00 	vmlacc.f64	d0, d11, d0
  54:	0008030b 	andeq	r0, r8, fp, lsl #6
  58:	002e0600 	eoreq	r0, lr, r0, lsl #12
  5c:	0e030c3f 	mcreq	12, 0, r0, cr3, cr15, {1}
  60:	0b3b0b3a 	bleq	ec2d50 <__bss_end+0xeba8b4>
  64:	01120111 	tsteq	r2, r1, lsl r1
  68:	42960640 	addsmi	r0, r6, #67108864	; 0x4000000
  6c:	0700000c 	streq	r0, [r0, -ip]
  70:	0c3f002e 	ldceq	0, cr0, [pc], #-184	; ffffffc0 <__bss_end+0xffff7b24>
  74:	0b3a0e03 	bleq	e83888 <__bss_end+0xe7b3ec>
  78:	0c270b3b 	stceq	11, cr0, [r7], #-236	; 0xffffff14
  7c:	01111349 	tsteq	r1, r9, asr #6
  80:	06400112 			; <UNDEFINED> instruction: 0x06400112
  84:	000c4296 	muleq	ip, r6, r2
  88:	00340800 	eorseq	r0, r4, r0, lsl #16
  8c:	0b3a0e03 	bleq	e838a0 <__bss_end+0xe7b404>
  90:	13490b3b 	movtne	r0, #39739	; 0x9b3b
  94:	0a020c3f 	beq	83198 <__bss_end+0x7acfc>
  98:	01000000 	mrseq	r0, (UNDEF: 0)
  9c:	0e250111 	mcreq	1, 1, r0, cr5, cr1, {0}
  a0:	0e030b13 	vmoveq.32	d3[0], r0
  a4:	01110e1b 	tsteq	r1, fp, lsl lr
  a8:	06100112 			; <UNDEFINED> instruction: 0x06100112
  ac:	13020000 	movwne	r0, #8192	; 0x2000
  b0:	0b080301 	bleq	200cbc <__bss_end+0x1f8820>
  b4:	3b0b3a0b 	blcc	2ce8e8 <__bss_end+0x2c644c>
  b8:	0013010b 	andseq	r0, r3, fp, lsl #2
  bc:	000d0300 	andeq	r0, sp, r0, lsl #6
  c0:	0b3a0e03 	bleq	e838d4 <__bss_end+0xe7b438>
  c4:	13490b3b 	movtne	r0, #39739	; 0x9b3b
  c8:	00000a38 	andeq	r0, r0, r8, lsr sl
  cc:	0b000f04 	bleq	3ce4 <_start-0x431c>
  d0:	0013490b 	andseq	r4, r3, fp, lsl #18
  d4:	00240500 	eoreq	r0, r4, r0, lsl #10
  d8:	0b3e0b0b 	bleq	f82d0c <__bss_end+0xf7a870>
  dc:	00000e03 	andeq	r0, r0, r3, lsl #28
  e0:	3f012e06 	svccc	0x00012e06
  e4:	3a0e030c 	bcc	380d1c <__bss_end+0x378880>
  e8:	270b3b0b 	strcs	r3, [fp, -fp, lsl #22]
  ec:	1113490c 	tstne	r3, ip, lsl #18
  f0:	40011201 	andmi	r1, r1, r1, lsl #4
  f4:	0c429706 	mcrreq	7, 0, r9, r2, cr6
  f8:	00001301 	andeq	r1, r0, r1, lsl #6
  fc:	03000507 	movweq	r0, #1287	; 0x507
 100:	3b0b3a0e 	blcc	2ce940 <__bss_end+0x2c64a4>
 104:	0213490b 	andseq	r4, r3, #180224	; 0x2c000
 108:	0800000a 	stmdaeq	r0, {r1, r3}
 10c:	08030034 	stmdaeq	r3, {r2, r4, r5}
 110:	0b3b0b3a 	bleq	ec2e00 <__bss_end+0xeba964>
 114:	0a021349 	beq	84e40 <__bss_end+0x7c9a4>
 118:	34090000 	strcc	r0, [r9], #-0
 11c:	3a0e0300 	bcc	380d24 <__bss_end+0x378888>
 120:	490b3b0b 	stmdbmi	fp, {r0, r1, r3, r8, r9, fp, ip, sp}
 124:	000a0213 	andeq	r0, sl, r3, lsl r2
 128:	000f0a00 	andeq	r0, pc, r0, lsl #20
 12c:	00000b0b 	andeq	r0, r0, fp, lsl #22
 130:	3f012e0b 	svccc	0x00012e0b
 134:	3a0e030c 	bcc	380d6c <__bss_end+0x3788d0>
 138:	270b3b0b 	strcs	r3, [fp, -fp, lsl #22]
 13c:	1201110c 	andne	r1, r1, #3
 140:	97064001 	strls	r4, [r6, -r1]
 144:	13010c42 	movwne	r0, #7234	; 0x1c42
 148:	050c0000 	streq	r0, [ip, #-0]
 14c:	3a080300 	bcc	200d54 <__bss_end+0x1f88b8>
 150:	490b3b0b 	stmdbmi	fp, {r0, r1, r3, r8, r9, fp, ip, sp}
 154:	000a0213 	andeq	r0, sl, r3, lsl r2
 158:	00340d00 	eorseq	r0, r4, r0, lsl #26
 15c:	0b3a0e03 	bleq	e83970 <__bss_end+0xe7b4d4>
 160:	13490b3b 	movtne	r0, #39739	; 0x9b3b
 164:	0a020c3f 	beq	83268 <__bss_end+0x7adcc>
 168:	01000000 	mrseq	r0, (UNDEF: 0)
 16c:	0e250111 	mcreq	1, 1, r0, cr5, cr1, {0}
 170:	0e030b13 	vmoveq.32	d3[0], r0
 174:	01110e1b 	tsteq	r1, fp, lsl lr
 178:	06100112 			; <UNDEFINED> instruction: 0x06100112
 17c:	24020000 	strcs	r0, [r2], #-0
 180:	3e0b0b00 	vmlacc.f64	d0, d11, d0
 184:	000e030b 	andeq	r0, lr, fp, lsl #6
 188:	012e0300 	teqeq	lr, r0, lsl #6
 18c:	0e030c3f 	mcreq	12, 0, r0, cr3, cr15, {1}
 190:	0b3b0b3a 	bleq	ec2e80 <__bss_end+0xeba9e4>
 194:	01120111 	tsteq	r2, r1, lsl r1
 198:	42960640 	addsmi	r0, r6, #67108864	; 0x4000000
 19c:	0013010c 	andseq	r0, r3, ip, lsl #2
 1a0:	00340400 	eorseq	r0, r4, r0, lsl #8
 1a4:	0b3a0803 	bleq	e821b8 <__bss_end+0xe79d1c>
 1a8:	13490b3b 	movtne	r0, #39739	; 0x9b3b
 1ac:	00000a02 	andeq	r0, r0, r2, lsl #20
 1b0:	3f002e05 	svccc	0x00002e05
 1b4:	3a0e030c 	bcc	380dec <__bss_end+0x378950>
 1b8:	110b3b0b 	tstne	fp, fp, lsl #22
 1bc:	40011201 	andmi	r1, r1, r1, lsl #4
 1c0:	0c429606 	mcrreq	6, 0, r9, r2, cr6
 1c4:	2e060000 	cdpcs	0, 0, cr0, cr6, cr0, {0}
 1c8:	030c3f01 	movweq	r3, #52993	; 0xcf01
 1cc:	3b0b3a0e 	blcc	2cea0c <__bss_end+0x2c6570>
 1d0:	1201110b 	andne	r1, r1, #-1073741822	; 0xc0000002
 1d4:	96064001 	strls	r4, [r6], -r1
 1d8:	00000c42 	andeq	r0, r0, r2, asr #24
 1dc:	01110100 	tsteq	r1, r0, lsl #2
 1e0:	0b130e25 	bleq	4c3a7c <__bss_end+0x4bb5e0>
 1e4:	0e1b0e03 	cdpeq	14, 1, cr0, cr11, cr3, {0}
 1e8:	01120111 	tsteq	r2, r1, lsl r1
 1ec:	00000610 	andeq	r0, r0, r0, lsl r6
 1f0:	03001602 	movweq	r1, #1538	; 0x602
 1f4:	3b0b3a0e 	blcc	2cea34 <__bss_end+0x2c6598>
 1f8:	0013490b 	andseq	r4, r3, fp, lsl #18
 1fc:	000f0300 	andeq	r0, pc, r0, lsl #6
 200:	13490b0b 	movtne	r0, #39691	; 0x9b0b
 204:	15040000 	strne	r0, [r4, #-0]
 208:	000c2700 	andeq	r2, ip, r0, lsl #14
 20c:	01130500 	tsteq	r3, r0, lsl #10
 210:	0b0b0e03 	bleq	2c3a24 <__bss_end+0x2bb588>
 214:	0b3b0b3a 	bleq	ec2f04 <__bss_end+0xebaa68>
 218:	00001301 	andeq	r1, r0, r1, lsl #6
 21c:	03000d06 	movweq	r0, #3334	; 0xd06
 220:	3b0b3a08 	blcc	2cea48 <__bss_end+0x2c65ac>
 224:	3813490b 	ldmdacc	r3, {r0, r1, r3, r8, fp, lr}
 228:	0700000a 	streq	r0, [r0, -sl]
 22c:	0b0b0024 	bleq	2c02c4 <__bss_end+0x2b7e28>
 230:	08030b3e 	stmdaeq	r3, {r1, r2, r3, r4, r5, r8, r9, fp}
 234:	2e080000 	cdpcs	0, 0, cr0, cr8, cr0, {0}
 238:	030c3f01 	movweq	r3, #52993	; 0xcf01
 23c:	3b0b3a0e 	blcc	2cea7c <__bss_end+0x2c65e0>
 240:	110c270b 	tstne	ip, fp, lsl #14
 244:	40011201 	andmi	r1, r1, r1, lsl #4
 248:	0c429606 	mcrreq	6, 0, r9, r2, cr6
 24c:	00001301 	andeq	r1, r0, r1, lsl #6
 250:	03000509 	movweq	r0, #1289	; 0x509
 254:	3b0b3a08 	blcc	2cea7c <__bss_end+0x2c65e0>
 258:	0213490b 	andseq	r4, r3, #180224	; 0x2c000
 25c:	0a00000a 	beq	28c <_start-0x7d74>
 260:	0e030005 	cdpeq	0, 0, cr0, cr3, cr5, {0}
 264:	0b3b0b3a 	bleq	ec2f54 <__bss_end+0xebaab8>
 268:	0a021349 	beq	84f94 <__bss_end+0x7caf8>
 26c:	240b0000 	strcs	r0, [fp], #-0
 270:	3e0b0b00 	vmlacc.f64	d0, d11, d0
 274:	000e030b 	andeq	r0, lr, fp, lsl #6
 278:	012e0c00 	teqeq	lr, r0, lsl #24
 27c:	0e030c3f 	mcreq	12, 0, r0, cr3, cr15, {1}
 280:	0b3b0b3a 	bleq	ec2f70 <__bss_end+0xebaad4>
 284:	01110c27 	tsteq	r1, r7, lsr #24
 288:	0a400112 	beq	10006d8 <__bss_end+0xff823c>
 28c:	010c4297 			; <UNDEFINED> instruction: 0x010c4297
 290:	0d000013 	stceq	0, cr0, [r0, #-76]	; 0xffffffb4
 294:	0e030034 	mcreq	0, 0, r0, cr3, cr4, {1}
 298:	0b3b0b3a 	bleq	ec2f88 <__bss_end+0xebaaec>
 29c:	0c3f1349 	ldceq	3, cr1, [pc], #-292	; 180 <_start-0x7e80>
 2a0:	00000a02 	andeq	r0, r0, r2, lsl #20
	...

Disassembly of section .debug_aranges:

00000000 <.debug_aranges>:
   0:	0000001c 	andeq	r0, r0, ip, lsl r0
   4:	00000002 	andeq	r0, r0, r2
   8:	00040000 	andeq	r0, r4, r0
   c:	00000000 	andeq	r0, r0, r0
  10:	00008000 	andeq	r8, r0, r0
  14:	000000d0 	ldrdeq	r0, [r0], -r0	; <UNPREDICTABLE>
	...
  20:	0000001c 	andeq	r0, r0, ip, lsl r0
  24:	004d0002 	subeq	r0, sp, r2
  28:	00040000 	andeq	r0, r4, r0
  2c:	00000000 	andeq	r0, r0, r0
  30:	000080d0 	ldrdeq	r8, [r0], -r0
  34:	00000088 	andeq	r0, r0, r8, lsl #1
	...
  40:	0000001c 	andeq	r0, r0, ip, lsl r0
  44:	01390002 	teqeq	r9, r2
  48:	00040000 	andeq	r0, r4, r0
  4c:	00000000 	andeq	r0, r0, r0
  50:	00008158 	andeq	r8, r0, r8, asr r1
  54:	00000138 	andeq	r0, r0, r8, lsr r1
	...
  60:	0000001c 	andeq	r0, r0, ip, lsl r0
  64:	029b0002 	addseq	r0, fp, #2
  68:	00040000 	andeq	r0, r4, r0
  6c:	00000000 	andeq	r0, r0, r0
  70:	00008290 	muleq	r0, r0, r2
  74:	0000013c 	andeq	r0, r0, ip, lsr r1
	...
  80:	0000001c 	andeq	r0, r0, ip, lsl r0
  84:	03570002 	cmpeq	r7, #2
  88:	00040000 	andeq	r0, r4, r0
  8c:	00000000 	andeq	r0, r0, r0
  90:	000083cc 	andeq	r8, r0, ip, asr #7
  94:	000000a8 	andeq	r0, r0, r8, lsr #1
	...

Disassembly of section .debug_loc:

00000000 <.debug_loc>:
   0:	00000000 	andeq	r0, r0, r0
   4:	00000004 	andeq	r0, r0, r4
   8:	007d0002 	rsbseq	r0, sp, r2
   c:	00000004 	andeq	r0, r0, r4
  10:	00000014 	andeq	r0, r0, r4, lsl r0
  14:	087d0002 	ldmdaeq	sp!, {r1}^
	...
  20:	00000014 	andeq	r0, r0, r4, lsl r0
  24:	00000018 	andeq	r0, r0, r8, lsl r0
  28:	007d0002 	rsbseq	r0, sp, r2
  2c:	00000018 	andeq	r0, r0, r8, lsl r0
  30:	00000028 	andeq	r0, r0, r8, lsr #32
  34:	087d0002 	ldmdaeq	sp!, {r1}^
	...
  40:	00000028 	andeq	r0, r0, r8, lsr #32
  44:	0000002c 	andeq	r0, r0, ip, lsr #32
  48:	007d0002 	rsbseq	r0, sp, r2
  4c:	0000002c 	andeq	r0, r0, ip, lsr #32
  50:	00000088 	andeq	r0, r0, r8, lsl #1
  54:	087d0002 	ldmdaeq	sp!, {r1}^
	...
  64:	00000004 	andeq	r0, r0, r4
  68:	007d0002 	rsbseq	r0, sp, r2
  6c:	00000004 	andeq	r0, r0, r4
  70:	00000008 	andeq	r0, r0, r8
  74:	087d0002 	ldmdaeq	sp!, {r1}^
  78:	00000008 	andeq	r0, r0, r8
  7c:	000000b4 	strheq	r0, [r0], -r4
  80:	107d0002 	rsbsne	r0, sp, r2
	...
  8c:	000000b4 	strheq	r0, [r0], -r4
  90:	000000b8 	strheq	r0, [r0], -r8
  94:	007d0002 	rsbseq	r0, sp, r2
  98:	000000b8 	strheq	r0, [r0], -r8
  9c:	000000bc 	strheq	r0, [r0], -ip
  a0:	047d0002 	ldrbteq	r0, [sp], #-2
  a4:	000000bc 	strheq	r0, [r0], -ip
  a8:	000000fc 	strdeq	r0, [r0], -ip
  ac:	107d0002 	rsbsne	r0, sp, r2
	...
  b8:	000000fc 	strdeq	r0, [r0], -ip
  bc:	00000100 	andeq	r0, r0, r0, lsl #2
  c0:	007d0002 	rsbseq	r0, sp, r2
  c4:	00000100 	andeq	r0, r0, r0, lsl #2
  c8:	00000138 	andeq	r0, r0, r8, lsr r1
  cc:	087d0002 	ldmdaeq	sp!, {r1}^
	...
  dc:	00000004 	andeq	r0, r0, r4
  e0:	007d0002 	rsbseq	r0, sp, r2
  e4:	00000004 	andeq	r0, r0, r4
  e8:	00000008 	andeq	r0, r0, r8
  ec:	047d0002 	ldrbteq	r0, [sp], #-2
  f0:	00000008 	andeq	r0, r0, r8
  f4:	0000004c 	andeq	r0, r0, ip, asr #32
  f8:	107d0002 	rsbsne	r0, sp, r2
	...
 104:	0000004c 	andeq	r0, r0, ip, asr #32
 108:	00000050 	andeq	r0, r0, r0, asr r0
 10c:	007d0002 	rsbseq	r0, sp, r2
 110:	00000050 	andeq	r0, r0, r0, asr r0
 114:	00000064 	andeq	r0, r0, r4, rrx
 118:	087d0002 	ldmdaeq	sp!, {r1}^
	...
 124:	00000064 	andeq	r0, r0, r4, rrx
 128:	00000068 	andeq	r0, r0, r8, rrx
 12c:	007d0002 	rsbseq	r0, sp, r2
 130:	00000068 	andeq	r0, r0, r8, rrx
 134:	0000007c 	andeq	r0, r0, ip, ror r0
 138:	087d0002 	ldmdaeq	sp!, {r1}^
	...
 144:	0000007c 	andeq	r0, r0, ip, ror r0
 148:	00000080 	andeq	r0, r0, r0, lsl #1
 14c:	007d0002 	rsbseq	r0, sp, r2
 150:	00000080 	andeq	r0, r0, r0, lsl #1
 154:	00000084 	andeq	r0, r0, r4, lsl #1
 158:	047d0002 	ldrbteq	r0, [sp], #-2
 15c:	00000084 	andeq	r0, r0, r4, lsl #1
 160:	0000013c 	andeq	r0, r0, ip, lsr r1
 164:	107d0002 	rsbsne	r0, sp, r2
	...
 174:	00000004 	andeq	r0, r0, r4
 178:	007d0002 	rsbseq	r0, sp, r2
 17c:	00000004 	andeq	r0, r0, r4
 180:	00000008 	andeq	r0, r0, r8
 184:	047d0002 	ldrbteq	r0, [sp], #-2
 188:	00000008 	andeq	r0, r0, r8
 18c:	0000004c 	andeq	r0, r0, ip, asr #32
 190:	187d0002 	ldmdane	sp!, {r1}^
	...

Disassembly of section .debug_str:

00000000 <.debug_str>:
   0:	5f787463 	svcpl	0x00787463
   4:	676e6970 			; <UNDEFINED> instruction: 0x676e6970
   8:	554e4700 	strbpl	r4, [lr, #-1792]	; 0x700
   c:	34204320 	strtcc	r4, [r0], #-800	; 0x320
  10:	312e372e 	teqcc	lr, lr, lsr #14
  14:	72656b00 	rsbvc	r6, r5, #0
  18:	2e6c656e 	cdpcs	5, 6, cr6, cr12, cr14, {3}
  1c:	74630063 	strbtvc	r0, [r3], #-99	; 0x63
  20:	6e695f78 	mcrvs	15, 3, r5, cr9, cr8, {3}
  24:	63007469 	movwvs	r7, #1129	; 0x469
  28:	65727275 	ldrbvs	r7, [r2, #-629]!	; 0x275
  2c:	635f746e 	cmpvs	pc, #1845493760	; 0x6e000000
  30:	6b007874 	blvs	1e208 <__bss_end+0x15d6c>
  34:	6e69616d 	powvsez	f6, f1, #5.0
  38:	78746300 	ldmdavc	r4!, {r8, r9, sp, lr}^
  3c:	2f00735f 	svccs	0x0000735f
  40:	656d6f68 	strbvs	r6, [sp, #-3944]!	; 0xf68
  44:	6c65732f 	stclvs	3, cr7, [r5], #-188	; 0xffffff44
  48:	6f616c61 	svcvs	0x00616c61
  4c:	2f746975 	svccs	0x00746975
  50:	6970736f 	ldmdbvs	r0!, {r0, r1, r2, r3, r5, r6, r8, r9, ip, sp, lr}^
  54:	74732d65 	ldrbtvc	r2, [r3], #-3429	; 0xd65
  58:	00747261 	rsbseq	r7, r4, r1, ror #4
  5c:	5f787463 	svcpl	0x00787463
  60:	676e6f70 			; <UNDEFINED> instruction: 0x676e6f70
  64:	79687000 	stmdbvc	r8!, {ip, sp, lr}^
  68:	6f6c6c41 	svcvs	0x006c6c41
  6c:	00632e63 	rsbeq	r2, r3, r3, ror #28
  70:	76657270 			; <UNDEFINED> instruction: 0x76657270
  74:	65726600 	ldrbvs	r6, [r2, #-1536]!	; 0x600
  78:	73696c65 	cmnvc	r9, #25856	; 0x6500
  7c:	68700074 	ldmdavs	r0!, {r2, r4, r5, r6}^
  80:	6c6c4179 	stfvse	f4, [ip], #-484	; 0xfffffe1c
  84:	665f636f 	ldrbvs	r6, [pc], -pc, ror #6
  88:	00656572 	rsbeq	r6, r5, r2, ror r5
  8c:	70616568 	rsbvc	r6, r1, r8, ror #10
  90:	6d696c5f 	stclvs	12, cr6, [r9, #-380]!	; 0xfffffe84
  94:	68007469 	stmdavs	r0, {r0, r3, r5, r6, sl, ip, sp, lr}
  98:	5f706165 	svcpl	0x00706165
  9c:	72617473 	rsbvc	r7, r1, #1929379840	; 0x73000000
  a0:	656e0074 	strbvs	r0, [lr, #-116]!	; 0x74
  a4:	70007478 	andvc	r7, r0, r8, ror r4
  a8:	6c417968 	mcrrvs	9, 6, r7, r1, cr8
  ac:	5f636f6c 	svcpl	0x00636f6c
  b0:	6f6c6c61 	svcvs	0x006c6c61
  b4:	68700063 	ldmdavs	r0!, {r0, r1, r5, r6}^
  b8:	6c6c4179 	stfvse	f4, [ip], #-484	; 0xfffffe1c
  bc:	695f636f 	ldmdbvs	pc, {r0, r1, r2, r3, r5, r6, r8, r9, sp, lr}^	; <UNPREDICTABLE>
  c0:	0074696e 	rsbseq	r6, r4, lr, ror #18
  c4:	70616568 	rsbvc	r6, r1, r8, ror #10
  c8:	7a69735f 	bvc	1a5ce4c <__bss_end+0x1a549b0>
  cc:	6e750065 	cdpvs	0, 7, cr0, cr5, cr5, {3}
  d0:	6e676973 	mcrvs	9, 3, r6, cr7, cr3, {3}
  d4:	63206465 	teqvs	r0, #1694498816	; 0x65000000
  d8:	00726168 	rsbseq	r6, r2, r8, ror #2
  dc:	632e7768 	teqvs	lr, #27262976	; 0x1a00000
  e0:	64656c00 	strbtvs	r6, [r5], #-3072	; 0xc00
  e4:	006e6f5f 	rsbeq	r6, lr, pc, asr pc
  e8:	5f746573 	svcpl	0x00746573
  ec:	6b636974 	blvs	18da6c4 <__bss_end+0x18d2228>
  f0:	646e615f 	strbtvs	r6, [lr], #-351	; 0x15f
  f4:	616e655f 	cmnvs	lr, pc, asr r5
  f8:	5f656c62 	svcpl	0x00656c62
  fc:	656d6974 	strbvs	r6, [sp, #-2420]!	; 0x974
 100:	68730072 	ldmdavs	r3!, {r1, r4, r5, r6}^
 104:	2074726f 	rsbscs	r7, r4, pc, ror #4
 108:	69736e75 	ldmdbvs	r3!, {r0, r2, r4, r5, r6, r9, sl, fp, sp, lr}^
 10c:	64656e67 	strbtvs	r6, [r5], #-3687	; 0xe67
 110:	746e6920 	strbtvc	r6, [lr], #-2336	; 0x920
 114:	696e6900 	stmdbvs	lr!, {r8, fp, sp, lr}^
 118:	77685f74 			; <UNDEFINED> instruction: 0x77685f74
 11c:	64656c00 	strbtvs	r6, [r5], #-3072	; 0xc00
 120:	66666f5f 	uqsaxvs	r6, r6, pc	; <UNPREDICTABLE>
 124:	6e756600 	cdpvs	6, 7, cr6, cr5, cr0, {0}
 128:	00745f63 	rsbseq	r5, r4, r3, ror #30
 12c:	63617473 	cmnvs	r1, #1929379840	; 0x73000000
 130:	69735f6b 	ldmdbvs	r3!, {r0, r1, r3, r5, r6, r8, r9, sl, fp, ip, lr}^
 134:	7300657a 	movwvc	r6, #1402	; 0x57a
 138:	64656863 	strbtvs	r6, [r5], #-2147	; 0x863
 13c:	7300632e 	movwvc	r6, #814	; 0x32e
 140:	63746977 	cmnvs	r4, #1949696	; 0x1dc000
 144:	6f745f68 	svcvs	0x00745f68
 148:	696e6900 	stmdbvs	lr!, {r8, fp, sp, lr}^
 14c:	74635f74 	strbtvc	r5, [r3], #-3956	; 0xf74
 150:	Address 0x0000000000000150 is out of bounds.


Disassembly of section .debug_frame:

00000000 <.debug_frame>:
   0:	0000000c 	andeq	r0, r0, ip
   4:	ffffffff 			; <UNDEFINED> instruction: 0xffffffff
   8:	7c020001 	stcvc	0, cr0, [r2], {1}
   c:	000d0c0e 	andeq	r0, sp, lr, lsl #24
  10:	00000014 	andeq	r0, r0, r4, lsl r0
  14:	00000000 	andeq	r0, r0, r0
  18:	000080d0 	ldrdeq	r8, [r0], -r0
  1c:	00000014 	andeq	r0, r0, r4, lsl r0
  20:	83080e42 	movwhi	r0, #36418	; 0x8e42
  24:	00018e02 	andeq	r8, r1, r2, lsl #28
  28:	00000014 	andeq	r0, r0, r4, lsl r0
  2c:	00000000 	andeq	r0, r0, r0
  30:	000080e4 	andeq	r8, r0, r4, ror #1
  34:	00000014 	andeq	r0, r0, r4, lsl r0
  38:	83080e42 	movwhi	r0, #36418	; 0x8e42
  3c:	00018e02 	andeq	r8, r1, r2, lsl #28
  40:	00000014 	andeq	r0, r0, r4, lsl r0
  44:	00000000 	andeq	r0, r0, r0
  48:	000080f8 	strdeq	r8, [r0], -r8	; <UNPREDICTABLE>
  4c:	00000060 	andeq	r0, r0, r0, rrx
  50:	83080e42 	movwhi	r0, #36418	; 0x8e42
  54:	00018e02 	andeq	r8, r1, r2, lsl #28
  58:	0000000c 	andeq	r0, r0, ip
  5c:	ffffffff 			; <UNDEFINED> instruction: 0xffffffff
  60:	7c020001 	stcvc	0, cr0, [r2], {1}
  64:	000d0c0e 	andeq	r0, sp, lr, lsl #24
  68:	00000018 	andeq	r0, r0, r8, lsl r0
  6c:	00000058 	andeq	r0, r0, r8, asr r0
  70:	00008158 	andeq	r8, r0, r8, asr r1
  74:	000000b4 	strheq	r0, [r0], -r4
  78:	84080e42 	strhi	r0, [r8], #-3650	; 0xe42
  7c:	42018502 	andmi	r8, r1, #8388608	; 0x800000
  80:	0000100e 	andeq	r1, r0, lr
  84:	00000014 	andeq	r0, r0, r4, lsl r0
  88:	00000058 	andeq	r0, r0, r8, asr r0
  8c:	0000820c 	andeq	r8, r0, ip, lsl #4
  90:	00000048 	andeq	r0, r0, r8, asr #32
  94:	84040e42 	strhi	r0, [r4], #-3650	; 0xe42
  98:	100e4201 	andne	r4, lr, r1, lsl #4
  9c:	00000010 	andeq	r0, r0, r0, lsl r0
  a0:	00000058 	andeq	r0, r0, r8, asr r0
  a4:	00008254 	andeq	r8, r0, r4, asr r2
  a8:	0000003c 	andeq	r0, r0, ip, lsr r0
  ac:	00080e42 	andeq	r0, r8, r2, asr #28
  b0:	0000000c 	andeq	r0, r0, ip
  b4:	ffffffff 			; <UNDEFINED> instruction: 0xffffffff
  b8:	7c020001 	stcvc	0, cr0, [r2], {1}
  bc:	000d0c0e 	andeq	r0, sp, lr, lsl #24
  c0:	00000014 	andeq	r0, r0, r4, lsl r0
  c4:	000000b0 	strheq	r0, [r0], -r0	; <UNPREDICTABLE>
  c8:	00008290 	muleq	r0, r0, r2
  cc:	0000004c 	andeq	r0, r0, ip, asr #32
  d0:	8e040e42 	cdphi	14, 0, cr0, cr4, cr2, {2}
  d4:	100e4201 	andne	r4, lr, r1, lsl #4
  d8:	00000014 	andeq	r0, r0, r4, lsl r0
  dc:	000000b0 	strheq	r0, [r0], -r0	; <UNPREDICTABLE>
  e0:	000082dc 	ldrdeq	r8, [r0], -ip
  e4:	00000018 	andeq	r0, r0, r8, lsl r0
  e8:	83080e42 	movwhi	r0, #36418	; 0x8e42
  ec:	00018e02 	andeq	r8, r1, r2, lsl #28
  f0:	00000014 	andeq	r0, r0, r4, lsl r0
  f4:	000000b0 	strheq	r0, [r0], -r0	; <UNPREDICTABLE>
  f8:	000082f4 	strdeq	r8, [r0], -r4
  fc:	00000018 	andeq	r0, r0, r8, lsl r0
 100:	83080e42 	movwhi	r0, #36418	; 0x8e42
 104:	00018e02 	andeq	r8, r1, r2, lsl #28
 108:	00000014 	andeq	r0, r0, r4, lsl r0
 10c:	000000b0 	strheq	r0, [r0], -r0	; <UNPREDICTABLE>
 110:	0000830c 	andeq	r8, r0, ip, lsl #6
 114:	000000c0 	andeq	r0, r0, r0, asr #1
 118:	8e040e42 	cdphi	14, 0, cr0, cr4, cr2, {2}
 11c:	100e4201 	andne	r4, lr, r1, lsl #4
 120:	0000000c 	andeq	r0, r0, ip
 124:	ffffffff 			; <UNDEFINED> instruction: 0xffffffff
 128:	7c020001 	stcvc	0, cr0, [r2], {1}
 12c:	000d0c0e 	andeq	r0, sp, lr, lsl #24
 130:	00000014 	andeq	r0, r0, r4, lsl r0
 134:	00000120 	andeq	r0, r0, r0, lsr #2
 138:	000083cc 	andeq	r8, r0, ip, asr #7
 13c:	0000004c 	andeq	r0, r0, ip, asr #32
 140:	8e040e42 	cdphi	14, 0, cr0, cr4, cr2, {2}
 144:	180e4201 	stmdane	lr, {r0, r9, lr}
 148:	0000000c 	andeq	r0, r0, ip
 14c:	00000120 	andeq	r0, r0, r0, lsr #2
 150:	00008418 	andeq	r8, r0, r8, lsl r4
 154:	0000005c 	andeq	r0, r0, ip, asr r0
